
CH32V307VCT6_bootloader_project.elf:     file format elf32-littleriscv
CH32V307VCT6_bootloader_project.elf
architecture: riscv:rv32, flags 0x00000112:
EXEC_P, HAS_SYMS, D_PAGED
start address 0x00000000

Program Header:
    LOAD off    0x00001000 vaddr 0x00000000 paddr 0x00000000 align 2**12
         filesz 0x000035c4 memsz 0x000035c4 flags r-x
    LOAD off    0x00005000 vaddr 0x20000000 paddr 0x000035c4 align 2**12
         filesz 0x000000b0 memsz 0x00000cf0 flags rw-
    LOAD off    0x00005800 vaddr 0x2000f800 paddr 0x2000f800 align 2**12
         filesz 0x00000000 memsz 0x00000800 flags rw-

Sections:
Idx Name          Size      VMA       LMA       File off  Algn
  0 .init         00000004  00000000  00000000  00001000  2**1
                  CONTENTS, ALLOC, LOAD, READONLY, CODE
  1 .vector       000001bc  00000004  00000004  00001004  2**1
                  CONTENTS, ALLOC, LOAD, READONLY, CODE
  2 .text         00003404  000001c0  000001c0  000011c0  2**2
                  CONTENTS, ALLOC, LOAD, READONLY, CODE
  3 .fini         00000000  000035c4  000035c4  000050b0  2**0
                  CONTENTS, ALLOC, LOAD, CODE
  4 .dalign       00000000  20000000  20000000  000050b0  2**0
                  CONTENTS
  5 .dlalign      00000000  000035c4  000035c4  000050b0  2**0
                  CONTENTS
  6 .data         000000b0  20000000  000035c4  00005000  2**2
                  CONTENTS, ALLOC, LOAD, DATA
  7 .bss          00000c40  200000b0  00003674  000050b0  2**2
                  ALLOC
  8 .stack        00000800  2000f800  2000f800  00005800  2**0
                  ALLOC
  9 .debug_info   00013045  00000000  00000000  000050b0  2**0
                  CONTENTS, READONLY, DEBUGGING
 10 .debug_abbrev 00003351  00000000  00000000  000180f5  2**0
                  CONTENTS, READONLY, DEBUGGING
 11 .debug_aranges 000009d0  00000000  00000000  0001b448  2**3
                  CONTENTS, READONLY, DEBUGGING
 12 .debug_ranges 00000b08  00000000  00000000  0001be18  2**3
                  CONTENTS, READONLY, DEBUGGING
 13 .debug_line   0000e63a  00000000  00000000  0001c920  2**0
                  CONTENTS, READONLY, DEBUGGING
 14 .debug_str    0000354e  00000000  00000000  0002af5a  2**0
                  CONTENTS, READONLY, DEBUGGING
 15 .comment      00000033  00000000  00000000  0002e4a8  2**0
                  CONTENTS, READONLY
 16 .debug_frame  000022f0  00000000  00000000  0002e4dc  2**2
                  CONTENTS, READONLY, DEBUGGING
 17 .debug_loc    000053c0  00000000  00000000  000307cc  2**0
                  CONTENTS, READONLY, DEBUGGING
 18 .stab         000000b4  00000000  00000000  00035b8c  2**2
                  CONTENTS, READONLY, DEBUGGING
 19 .stabstr      00000183  00000000  00000000  00035c40  2**0
                  CONTENTS, READONLY, DEBUGGING
SYMBOL TABLE:
00000000 l    d  .init	00000000 .init
00000004 l    d  .vector	00000000 .vector
000001c0 l    d  .text	00000000 .text
000035c4 l    d  .fini	00000000 .fini
20000000 l    d  .dalign	00000000 .dalign
000035c4 l    d  .dlalign	00000000 .dlalign
20000000 l    d  .data	00000000 .data
200000b0 l    d  .bss	00000000 .bss
2000f800 l    d  .stack	00000000 .stack
00000000 l    d  .debug_info	00000000 .debug_info
00000000 l    d  .debug_abbrev	00000000 .debug_abbrev
00000000 l    d  .debug_aranges	00000000 .debug_aranges
00000000 l    d  .debug_ranges	00000000 .debug_ranges
00000000 l    d  .debug_line	00000000 .debug_line
00000000 l    d  .debug_str	00000000 .debug_str
00000000 l    d  .comment	00000000 .comment
00000000 l    d  .debug_frame	00000000 .debug_frame
00000000 l    d  .debug_loc	00000000 .debug_loc
00000000 l    d  .stab	00000000 .stab
00000000 l    d  .stabstr	00000000 .stabstr
00000000 l    df *ABS*	00000000 ./Startup/startup_ch32v30x_D8C.o
00000004 l       .vector	00000000 _vector_base
00000000 l    df *ABS*	00000000 ch32v30x_it.c
00000000 l    df *ABS*	00000000 main.c
00000000 l    df *ABS*	00000000 system_ch32v30x.c
00000000 l    df *ABS*	00000000 ch32v30x_flash.c
00000000 l    df *ABS*	00000000 ch32v30x_gpio.c
00000000 l    df *ABS*	00000000 ch32v30x_misc.c
00000000 l    df *ABS*	00000000 ch32v30x_rcc.c
20000010 l     O .data	00000010 APBAHBPrescTable
20000094 l     O .data	00000004 ADCPrescTable
00000000 l    df *ABS*	00000000 ch32v30x_tim.c
00000000 l    df *ABS*	00000000 ch32v30x_usart.c
00000000 l    df *ABS*	00000000 mytimer.c
00000000 l    df *ABS*	00000000 myuart.c
00000000 l    df *ABS*	00000000 scheduler.c
20000020 l     O .data	0000000c scheduler_task
00000000 l    df *ABS*	00000000 debug.c
200000be l     O .bss	00000002 p_ms
200000c0 l     O .bss	00000001 p_us
20000098 l     O .data	00000004 curbrk.5273
00000000 l    df *ABS*	00000000 boot_port_ch32v307.c
00000000 l    df *ABS*	00000000 easy_bootloader.c
0000139c l     F .text	00000036 bootloader_consume_cache
200004d8 l     O .bss	00000814 g_boot_ctx
200000a0 l     O .data	00000006 g_boot_ack
00000000 l    df *ABS*	00000000 ringbuffer.c
00003468 l     O .text	00000013 __func__.2857
0000347c l     O .text	00000012 __func__.2864
00003490 l     O .text	00000012 __func__.2878
00000000 l    df *ABS*	00000000 assert.c
00000000 l    df *ABS*	00000000 fprintf.c
00000000 l    df *ABS*	00000000 memcpy.c
00000000 l    df *ABS*	00000000 memmove.c
00000000 l    df *ABS*	00000000 nano-vfprintf.c
00001bb2 l     F .text	00000026 __sfputc_r
00000000 l    df *ABS*	00000000 nano-vfprintf_i.c
00000000 l    df *ABS*	00000000 vsnprintf.c
00000000 l    df *ABS*	00000000 wbuf.c
00000000 l    df *ABS*	00000000 wsetup.c
00000000 l    df *ABS*	00000000 abort.c
00000000 l    df *ABS*	00000000 fflush.c
00000000 l    df *ABS*	00000000 findfp.c
00002618 l     F .text	00000066 std
00000000 l    df *ABS*	00000000 fwalk.c
00000000 l    df *ABS*	00000000 makebuf.c
00000000 l    df *ABS*	00000000 memchr.c
00000000 l    df *ABS*	00000000 nano-mallocr.c
00000000 l    df *ABS*	00000000 nano-mallocr.c
00000000 l    df *ABS*	00000000 nano-mallocr.c
00000000 l    df *ABS*	00000000 nano-vfprintf.c
00000000 l    df *ABS*	00000000 sbrkr.c
00000000 l    df *ABS*	00000000 signal.c
00000000 l    df *ABS*	00000000 signalr.c
00000000 l    df *ABS*	00000000 stdio.c
00000000 l    df *ABS*	00000000 writer.c
00000000 l    df *ABS*	00000000 closer.c
00000000 l    df *ABS*	00000000 fstatr.c
00000000 l    df *ABS*	00000000 isattyr.c
00000000 l    df *ABS*	00000000 lseekr.c
00000000 l    df *ABS*	00000000 mlock.c
00000000 l    df *ABS*	00000000 nano-mallocr.c
00000000 l    df *ABS*	00000000 readr.c
00000000 l    df *ABS*	00000000 close.c
00000000 l    df *ABS*	00000000 fstat.c
00000000 l    df *ABS*	00000000 getpid.c
00000000 l    df *ABS*	00000000 isatty.c
00000000 l    df *ABS*	00000000 kill.c
00000000 l    df *ABS*	00000000 lseek.c
00000000 l    df *ABS*	00000000 read.c
00000000 l    df *ABS*	00000000 _exit.c
00000000 l    df *ABS*	00000000 impure.c
2000002c l     O .data	00000060 impure_data
00000000 l    df *ABS*	00000000 reent.c
0000308c g     F .text	00000014 _malloc_usable_size_r
0000052a  w      .text	00000000 EXTI2_IRQHandler
0000052a  w      .text	00000000 TIM8_TRG_COM_IRQHandler
0000052a  w      .text	00000000 TIM8_CC_IRQHandler
00003034 g     F .text	00000028 _isatty_r
000005b6 g     F .text	0000001a FLASH_Unlock
000030e4 g     F .text	0000000c _getpid
000013d2 g     F .text	00000142 easy_bootloader_init
0000305c g     F .text	0000002c _lseek_r
0000052a  w      .text	00000000 UART8_IRQHandler
00002ede g     F .text	0000002a _kill_r
20000890 g       .data	00000000 __global_pointer$
000001c8 g     F .text	00000028 .hidden __riscv_save_8
0000052a  w      .text	00000000 TIM1_CC_IRQHandler
00001244 g     F .text	00000040 boot_port_uart_read
00002f7e g     F .text	00000030 __sseek
000026ce g     F .text	00000066 __sinit
000022bc g     F .text	000000bc __swbuf_r
000002ca g     F .text	00000010 HardFault_Handler
0000061c g     F .text	0000004c FLASH_ProgramWord
00002688 g     F .text	00000046 __sfmoreglue
0000308a g     F .text	00000002 __malloc_unlock
00000214 g     F .text	0000000c .hidden __riscv_restore_3
00000d7a g     F .text	00000024 TIM6_IRQHandler
0000052a  w      .text	00000000 SysTick_Handler
0000078c g     F .text	0000005c NVIC_Init
0000052a  w      .text	00000000 PVD_IRQHandler
200000cc g     O .bss	00000400 uart2_buffer
0000052a  w      .text	00000000 SDIO_IRQHandler
00001b6c g     F .text	00000046 memmove
0000052a  w      .text	00000000 TIM9_BRK_IRQHandler
00000200 g     F .text	00000020 .hidden __riscv_restore_10
0000052a  w      .text	00000000 DMA2_Channel8_IRQHandler
000002c8 g     F .text	00000002 NMI_Handler
0000052a  w      .text	00000000 CAN2_RX1_IRQHandler
0000052a  w      .text	00000000 EXTI3_IRQHandler
000001c8 g     F .text	00000028 .hidden __riscv_save_11
0000052a  w      .text	00000000 USBHS_IRQHandler
00000d34 g     F .text	0000000a USART_GetFlagStatus
0000052a  w      .text	00000000 DMA2_Channel9_IRQHandler
0000300a g     F .text	0000002a _fstat_r
0000052a  w      .text	00000000 TIM10_CC_IRQHandler
20000cec g     O .bss	00000004 errno
200000b0 g       .bss	00000000 _sbss
00000800 g       *ABS*	00000000 __stack_size
000012d6 g     F .text	000000b6 boot_port_jump_to_app
00001044 g     F .text	00000056 USART_Printf_Init
0000052a  w      .text	00000000 USBFS_IRQHandler
00000d9e g     F .text	00000074 mytim6_init
00000214 g     F .text	0000000c .hidden __riscv_restore_2
00001aba g     F .text	000000b2 memcpy
0000267e g     F .text	0000000a _cleanup_r
00002be0 g     F .text	00000268 _svfprintf_r
0000052a  w      .text	00000000 EXTI0_IRQHandler
0000052a  w      .text	00000000 I2C2_EV_IRQHandler
0000052a  w      .text	00000000 TIM10_TRG_COM_IRQHandler
00000b16 g     F .text	00000018 TIM_Cmd
20000090 g     O .data	00000004 SystemCoreClock
00000d2c g     F .text	00000008 USART_ReceiveData
00002e72 g     F .text	00000062 _raise_r
000030d8 g     F .text	0000000c _fstat
000011f8 g     F .text	0000004c boot_port_uart_write
00001a5a g     F .text	0000003a __assert_func
00000004 g       .init	00000000 _einit
00000b58 g     F .text	0000000c TIM_ClearITPendingBit
000022ac g     F .text	00000010 vsnprintf
000009b0 g     F .text	0000001e RCC_APB2PeriphClockCmd
000001c0 g     F .text	00000030 .hidden __riscv_save_12
0000052a  w      .text	00000000 CAN2_SCE_IRQHandler
0000052a  w      .text	00000000 ADC1_2_IRQHandler
00002f08 g     F .text	00000002 _getpid_r
000006c6 g     F .text	000000c0 GPIO_Init
0000052a  w      .text	00000000 Break_Point_Handler
00000200 g     F .text	00000020 .hidden __riscv_restore_11
200000b0 g     O .bss	00000004 NVIC_Priority_Group
0000052a  w      .text	00000000 SPI1_IRQHandler
00000cd8 g     F .text	00000016 USART_Cmd
00002e48 g     F .text	0000002a _sbrk_r
000001f0 g     F .text	0000000c .hidden __riscv_save_1
0000052a  w      .text	00000000 TAMPER_IRQHandler
00000214 g     F .text	0000000c .hidden __riscv_restore_0
000030a0 g     F .text	0000002c _read_r
000001d6 g     F .text	0000001a .hidden __riscv_save_7
0000052a  w      .text	00000000 CAN2_RX0_IRQHandler
0000052a  w      .text	00000000 TIM8_UP_IRQHandler
000009ce g     F .text	0000001e RCC_APB1PeriphClockCmd
0000052a  w      .text	00000000 Ecall_M_Mode_Handler
2000f800 g       .stack	00000000 _heap_end
000030f0 g     F .text	0000000c _isatty
200000a8 g     O .data	00000004 _global_impure_ptr
0000020a g     F .text	00000016 .hidden __riscv_restore_5
00002ab0 g     F .text	00000050 _realloc_r
0000052a  w      .text	00000000 DMA2_Channel2_IRQHandler
0000052a  w      .text	00000000 DMA1_Channel4_IRQHandler
00002474 g     F .text	00000010 abort
000010d4 g     F .text	00000026 _sbrk
000005d0 g     F .text	0000000e FLASH_Lock
0000052a  w      .text	00000000 TIM9_UP_IRQHandler
0000020a g     F .text	00000016 .hidden __riscv_restore_6
0000052a  w      .text	00000000 USART3_IRQHandler
0000052a  w      .text	00000000 RTC_IRQHandler
20000cf0 g       .bss	00000000 _ebss
00000d3e g     F .text	0000003c USART_GetITStatus
0000052a  w      .text	00000000 DMA1_Channel7_IRQHandler
000022ac g     F .text	00000010 vsniprintf
0000052a  w      .text	00000000 CAN1_RX1_IRQHandler
00000fe4 g     F .text	0000002a Delay_Init
0000052a  w      .text	00000000 DVP_IRQHandler
0000052a  w      .text	00000000 UART5_IRQHandler
00001836 g     F .text	0000001e rt_ringbuffer_status
0000138c g     F .text	00000010 boot_port_system_reset
00001a94 g     F .text	00000026 fprintf
0000052a  w      .text	00000000 TIM4_IRQHandler
000001c8 g     F .text	00000028 .hidden __riscv_save_9
0000052a  w      .text	00000000 DMA2_Channel1_IRQHandler
00003564 g     O .text	00000020 __sf_fake_stderr
000001d6 g     F .text	0000001a .hidden __riscv_save_4
0000052a  w      .text	00000000 I2C1_EV_IRQHandler
00001284 g     F .text	00000052 boot_port_log
00002b00 g     F .text	000000e0 __ssputs_r
00000b40 g     F .text	00000018 TIM_GetITStatus
0000083a g     F .text	00000176 RCC_GetClocksFreq
00000f8c g     F .text	0000001c scheduler_init
0000052a  w      .text	00000000 DMA1_Channel6_IRQHandler
00001bd8 g     F .text	00000040 __sfputs_r
0000052a  w      .text	00000000 UART4_IRQHandler
0000052a  w      .text	00000000 DMA2_Channel4_IRQHandler
00002922 g     F .text	00000018 memchr
00000c32 g     F .text	0000008e USART_Init
0000293a g     F .text	000000a8 _free_r
0000052a  w      .text	00000000 TIM3_IRQHandler
0000052a  w      .text	00000000 RCC_IRQHandler
000001f0 g     F .text	0000000c .hidden __riscv_save_3
0000052a  w      .text	00000000 TIM1_TRG_COM_IRQHandler
0000052a  w      .text	00000000 DMA1_Channel1_IRQHandler
00000000 g       .init	00000000 _start
0000052a  w      .text	00000000 DMA2_Channel7_IRQHandler
20000000 g     O .data	00000010 AHBPrescTable
000005de g     F .text	00000008 FLASH_ClearFlag
200004cc g     O .bss	0000000c uart2_ringbuffer
00003108 g     F .text	0000000c _lseek
000005fe g     F .text	0000001e FLASH_WaitForLastOperation
00000fa8 g     F .text	0000003c scheduler_run
0000052a  w      .text	00000000 EXTI15_10_IRQHandler
00000b2e g     F .text	00000012 TIM_ITConfig
00000cee g     F .text	00000036 USART_ITConfig
0000052a  w      .text	00000000 TIM7_IRQHandler
00000668 g     F .text	0000002e FLASH_ErasePage_Fast
00002fe2 g     F .text	00000028 _close_r
00000696 g     F .text	00000030 FLASH_EraseBlock_32K_Fast
0000052a  w      .text	00000000 CAN2_TX_IRQHandler
20000000 g       .dalign	00000000 _data_vma
00001514 g     F .text	00000322 easy_bootloader_run
0000052a  w      .text	00000000 TIM5_IRQHandler
200000bc g     O .bss	00000001 task_num
00002378 g     F .text	000000fc __swsetup_r
0000198e g     F .text	000000cc rt_ringbuffer_get
0000052a  w      .text	00000000 EXTI9_5_IRQHandler
00000e12 g     F .text	00000006 get_uwtick
00002734 g     F .text	0000009c __sfp
00002250 g     F .text	0000005c _vsnprintf_r
000001c8 g     F .text	00000028 .hidden __riscv_save_10
00002f0a g     F .text	0000002c __sread
0000052a  w      .text	00000000 ETH_WKUP_IRQHandler
00000b64 g     F .text	000000ce USART_DeInit
00003088 g     F .text	00000002 __malloc_lock
0000020a g     F .text	00000016 .hidden __riscv_restore_4
00000200 g     F .text	00000020 .hidden __riscv_restore_8
0000189c g     F .text	0000003c rt_ringbuffer_data_len
000025b4 g     F .text	00000064 _fflush_r
000001d6 g     F .text	0000001a .hidden __riscv_save_6
0000052a  w      .text	00000000 SPI2_IRQHandler
00003584 g     O .text	00000020 __sf_fake_stdin
00000220 g     F .text	000000a8 memset
00000200 g     F .text	00000020 .hidden __riscv_restore_9
0000020a g     F .text	00000016 .hidden __riscv_restore_7
000002e0 g     F .text	00000022 main
0000052a  w      .text	00000000 TIM10_BRK_IRQHandler
00000e18 g     F .text	000000ba myuart2_init
0000052a  w      .text	00000000 TIM9_CC_IRQHandler
00002fae g     F .text	00000006 __sclose
0000052a  w      .text	00000000 DMA2_Channel5_IRQHandler
000029e2 g     F .text	000000ce _malloc_r
0000052a  w      .text	00000000 DMA1_Channel5_IRQHandler
00001854 g     F .text	00000048 rt_ringbuffer_init
0000052a  w      .text	00000000 EXTI4_IRQHandler
0000100e g     F .text	00000036 Delay_Ms
0000052a  w      .text	00000000 USB_LP_CAN1_RX0_IRQHandler
00000302 g     F .text	000000fa SystemInit
0000052a  w      .text	00000000 RNG_IRQHandler
00000f0a g     F .text	00000082 uart_printf
0000052a  w      .text	00000000 USB_HP_CAN1_TX_IRQHandler
000007e8 g     F .text	00000052 RCC_DeInit
00000000 g       .init	00000000 _sinit
00002fb4 g     F .text	0000002e _write_r
0000052a  w      .text	00000000 DMA1_Channel3_IRQHandler
0000052a  w      .text	00000000 ETH_IRQHandler
00001ea2 g     F .text	0000010c _printf_common
000011e0 g     F .text	00000018 boot_port_flash_read
2000009c g     O .data	00000004 _impure_ptr
0000052a  w      .text	00000000 TIM1_UP_IRQHandler
00002484 g     F .text	00000130 __sflush_r
00002be0 g     F .text	00000268 _svfiprintf_r
0000052a  w      .text	00000000 WWDG_IRQHandler
0000052a  w      .text	00000000 USBHSWakeup_IRQHandler
0000052a  w      .text	00000000 DMA2_Channel11_IRQHandler
00000a0a g     F .text	0000001e RCC_APB1PeriphResetCmd
0000052a  w      .text	00000000 Ecall_U_Mode_Handler
200000b8 g     O .bss	00000004 uart2_tick
0000052a  w      .text	00000000 DMA2_Channel6_IRQHandler
0000052a  w      .text	00000000 TIM2_IRQHandler
20010000 g       .stack	00000000 _eusrstack
000001f0 g     F .text	0000000c .hidden __riscv_save_2
00002250 g     F .text	0000005c _vsniprintf_r
000002da g     F .text	00000006 SW_Handler
0000052a  w      .text	00000000 TIM1_BRK_IRQHandler
0000283a g     F .text	00000058 __swhatbuf_r
00000d24 g     F .text	00000008 USART_SendData
0000052a  w      .text	00000000 DMA2_Channel10_IRQHandler
0000052a  w      .text	00000000 EXTI1_IRQHandler
000001d6 g     F .text	0000001a .hidden __riscv_save_5
0000109a g     F .text	0000003a _write
200000b0 g       .data	00000000 _edata
00000cc0 g     F .text	00000018 USART_StructInit
20000cf0 g       .bss	00000000 _end
00000a28 g     F .text	000000ee TIM_TimeBaseInit
0000052a  w      .text	00000000 RTCAlarm_IRQHandler
000035c4 g       .dlalign	00000000 _data_lma
0000052a  w      .text	00000000 TIM10_UP_IRQHandler
0000052a  w      .text	00000000 TIM9_TRG_COM_IRQHandler
0000052a  w      .text	00000000 UART7_IRQHandler
00001176 g     F .text	0000006a boot_port_flash_write
00000ed2 g     F .text	00000038 USART2_IRQHandler
0000052a  w      .text	00000000 UART6_IRQHandler
00002f36 g     F .text	00000048 __swrite
00001a94 g     F .text	00000026 fiprintf
00001c18 g     F .text	0000028a _vfiprintf_r
000027d0 g     F .text	0000006a _fwalk_reent
000003fc g     F .text	0000012e SystemCoreClockUpdate
000030fc g     F .text	0000000c _kill
0000052a  w      .text	00000000 I2C2_ER_IRQHandler
0000052a  w      .text	00000000 DMA1_Channel2_IRQHandler
000035a4 g     O .text	00000020 __sf_fake_stdout
000001fc g     F .text	00000024 .hidden __riscv_restore_12
0000052a  w      .text	00000000 TIM8_BRK_IRQHandler
00003114 g     F .text	0000000c _read
0000052c  w      .text	00000000 handle_reset
0000052a  w      .text	00000000 CAN1_SCE_IRQHandler
0000052a  w      .text	00000000 FLASH_IRQHandler
000001f0 g     F .text	0000000c .hidden __riscv_save_0
00003120 g     F .text	00000002 _exit
0000052a  w      .text	00000000 USART1_IRQHandler
00002892 g     F .text	00000090 __smakebuf_r
00001fae g     F .text	000002a2 _printf_i
0000052a  w      .text	00000000 SPI3_IRQHandler
200000c8 g     O .bss	00000004 __malloc_sbrk_start
000009ec g     F .text	0000001e RCC_APB2PeriphResetCmd
0000052a  w      .text	00000000 I2C1_ER_IRQHandler
00000786 g     F .text	00000006 NVIC_PriorityGroupConfig
200000c4 g     O .bss	00000004 __malloc_free_list
00000214 g     F .text	0000000c .hidden __riscv_restore_1
00001c18 g     F .text	0000028a _vfprintf_r
000018d8 g     F .text	000000b6 rt_ringbuffer_put
000005e6 g     F .text	00000018 FLASH_GetBank1Status
000010fa g     F .text	0000007c boot_port_flash_erase
200000b4 g     O .bss	00000004 uwtick
0000052a  w      .text	00000000 USBWakeUp_IRQHandler
000030cc g     F .text	0000000c _close
00002ed4 g     F .text	0000000a raise
0000052a  w      .text	00000000 DMA2_Channel3_IRQHandler



Disassembly of section .init:

00000000 <_sinit>:
   0:	52c0006f          	j	52c <handle_reset>

Disassembly of section .vector:

00000004 <_vector_base>:
	...
   c:	02c8                	addi	a0,sp,324
   e:	0000                	unimp
  10:	02ca                	slli	t0,t0,0x12
  12:	0000                	unimp
  14:	0000                	unimp
  16:	0000                	unimp
  18:	052a                	slli	a0,a0,0xa
	...
  22:	0000                	unimp
  24:	052a                	slli	a0,a0,0xa
  26:	0000                	unimp
  28:	052a                	slli	a0,a0,0xa
	...
  32:	0000                	unimp
  34:	052a                	slli	a0,a0,0xa
  36:	0000                	unimp
  38:	0000                	unimp
  3a:	0000                	unimp
  3c:	02da                	slli	t0,t0,0x16
  3e:	0000                	unimp
  40:	0000                	unimp
  42:	0000                	unimp
  44:	052a                	slli	a0,a0,0xa
  46:	0000                	unimp
  48:	052a                	slli	a0,a0,0xa
  4a:	0000                	unimp
  4c:	052a                	slli	a0,a0,0xa
  4e:	0000                	unimp
  50:	052a                	slli	a0,a0,0xa
  52:	0000                	unimp
  54:	052a                	slli	a0,a0,0xa
  56:	0000                	unimp
  58:	052a                	slli	a0,a0,0xa
  5a:	0000                	unimp
  5c:	052a                	slli	a0,a0,0xa
  5e:	0000                	unimp
  60:	052a                	slli	a0,a0,0xa
  62:	0000                	unimp
  64:	052a                	slli	a0,a0,0xa
  66:	0000                	unimp
  68:	052a                	slli	a0,a0,0xa
  6a:	0000                	unimp
  6c:	052a                	slli	a0,a0,0xa
  6e:	0000                	unimp
  70:	052a                	slli	a0,a0,0xa
  72:	0000                	unimp
  74:	052a                	slli	a0,a0,0xa
  76:	0000                	unimp
  78:	052a                	slli	a0,a0,0xa
  7a:	0000                	unimp
  7c:	052a                	slli	a0,a0,0xa
  7e:	0000                	unimp
  80:	052a                	slli	a0,a0,0xa
  82:	0000                	unimp
  84:	052a                	slli	a0,a0,0xa
  86:	0000                	unimp
  88:	052a                	slli	a0,a0,0xa
  8a:	0000                	unimp
  8c:	052a                	slli	a0,a0,0xa
  8e:	0000                	unimp
  90:	052a                	slli	a0,a0,0xa
  92:	0000                	unimp
  94:	052a                	slli	a0,a0,0xa
  96:	0000                	unimp
  98:	052a                	slli	a0,a0,0xa
  9a:	0000                	unimp
  9c:	052a                	slli	a0,a0,0xa
  9e:	0000                	unimp
  a0:	052a                	slli	a0,a0,0xa
  a2:	0000                	unimp
  a4:	052a                	slli	a0,a0,0xa
  a6:	0000                	unimp
  a8:	052a                	slli	a0,a0,0xa
  aa:	0000                	unimp
  ac:	052a                	slli	a0,a0,0xa
  ae:	0000                	unimp
  b0:	052a                	slli	a0,a0,0xa
  b2:	0000                	unimp
  b4:	052a                	slli	a0,a0,0xa
  b6:	0000                	unimp
  b8:	052a                	slli	a0,a0,0xa
  ba:	0000                	unimp
  bc:	052a                	slli	a0,a0,0xa
  be:	0000                	unimp
  c0:	052a                	slli	a0,a0,0xa
  c2:	0000                	unimp
  c4:	052a                	slli	a0,a0,0xa
  c6:	0000                	unimp
  c8:	052a                	slli	a0,a0,0xa
  ca:	0000                	unimp
  cc:	052a                	slli	a0,a0,0xa
  ce:	0000                	unimp
  d0:	052a                	slli	a0,a0,0xa
  d2:	0000                	unimp
  d4:	052a                	slli	a0,a0,0xa
  d6:	0000                	unimp
  d8:	052a                	slli	a0,a0,0xa
  da:	0000                	unimp
  dc:	0ed2                	slli	t4,t4,0x14
  de:	0000                	unimp
  e0:	052a                	slli	a0,a0,0xa
  e2:	0000                	unimp
  e4:	052a                	slli	a0,a0,0xa
  e6:	0000                	unimp
  e8:	052a                	slli	a0,a0,0xa
  ea:	0000                	unimp
  ec:	052a                	slli	a0,a0,0xa
  ee:	0000                	unimp
  f0:	052a                	slli	a0,a0,0xa
  f2:	0000                	unimp
  f4:	052a                	slli	a0,a0,0xa
  f6:	0000                	unimp
  f8:	052a                	slli	a0,a0,0xa
  fa:	0000                	unimp
  fc:	052a                	slli	a0,a0,0xa
  fe:	0000                	unimp
 100:	052a                	slli	a0,a0,0xa
 102:	0000                	unimp
 104:	0000                	unimp
 106:	0000                	unimp
 108:	052a                	slli	a0,a0,0xa
 10a:	0000                	unimp
 10c:	052a                	slli	a0,a0,0xa
 10e:	0000                	unimp
 110:	052a                	slli	a0,a0,0xa
 112:	0000                	unimp
 114:	052a                	slli	a0,a0,0xa
 116:	0000                	unimp
 118:	052a                	slli	a0,a0,0xa
 11a:	0000                	unimp
 11c:	0d7a                	slli	s10,s10,0x1e
 11e:	0000                	unimp
 120:	052a                	slli	a0,a0,0xa
 122:	0000                	unimp
 124:	052a                	slli	a0,a0,0xa
 126:	0000                	unimp
 128:	052a                	slli	a0,a0,0xa
 12a:	0000                	unimp
 12c:	052a                	slli	a0,a0,0xa
 12e:	0000                	unimp
 130:	052a                	slli	a0,a0,0xa
 132:	0000                	unimp
 134:	052a                	slli	a0,a0,0xa
 136:	0000                	unimp
 138:	052a                	slli	a0,a0,0xa
 13a:	0000                	unimp
 13c:	052a                	slli	a0,a0,0xa
 13e:	0000                	unimp
 140:	052a                	slli	a0,a0,0xa
 142:	0000                	unimp
 144:	052a                	slli	a0,a0,0xa
 146:	0000                	unimp
 148:	052a                	slli	a0,a0,0xa
 14a:	0000                	unimp
 14c:	052a                	slli	a0,a0,0xa
 14e:	0000                	unimp
 150:	052a                	slli	a0,a0,0xa
 152:	0000                	unimp
 154:	052a                	slli	a0,a0,0xa
 156:	0000                	unimp
 158:	052a                	slli	a0,a0,0xa
 15a:	0000                	unimp
 15c:	052a                	slli	a0,a0,0xa
 15e:	0000                	unimp
 160:	052a                	slli	a0,a0,0xa
 162:	0000                	unimp
 164:	052a                	slli	a0,a0,0xa
 166:	0000                	unimp
 168:	052a                	slli	a0,a0,0xa
 16a:	0000                	unimp
 16c:	052a                	slli	a0,a0,0xa
 16e:	0000                	unimp
 170:	052a                	slli	a0,a0,0xa
 172:	0000                	unimp
 174:	052a                	slli	a0,a0,0xa
 176:	0000                	unimp
 178:	052a                	slli	a0,a0,0xa
 17a:	0000                	unimp
 17c:	052a                	slli	a0,a0,0xa
 17e:	0000                	unimp
 180:	052a                	slli	a0,a0,0xa
 182:	0000                	unimp
 184:	052a                	slli	a0,a0,0xa
 186:	0000                	unimp
 188:	052a                	slli	a0,a0,0xa
 18a:	0000                	unimp
 18c:	052a                	slli	a0,a0,0xa
 18e:	0000                	unimp
 190:	052a                	slli	a0,a0,0xa
 192:	0000                	unimp
 194:	052a                	slli	a0,a0,0xa
 196:	0000                	unimp
 198:	052a                	slli	a0,a0,0xa
 19a:	0000                	unimp
 19c:	052a                	slli	a0,a0,0xa
 19e:	0000                	unimp
 1a0:	052a                	slli	a0,a0,0xa
	...

Disassembly of section .text:

000001c0 <__riscv_save_12>:
     1c0:	7139                	addi	sp,sp,-64
     1c2:	4301                	li	t1,0
     1c4:	c66e                	sw	s11,12(sp)
     1c6:	a019                	j	1cc <__riscv_save_10+0x4>

000001c8 <__riscv_save_10>:
     1c8:	7139                	addi	sp,sp,-64
     1ca:	5341                	li	t1,-16
     1cc:	c86a                	sw	s10,16(sp)
     1ce:	ca66                	sw	s9,20(sp)
     1d0:	cc62                	sw	s8,24(sp)
     1d2:	ce5e                	sw	s7,28(sp)
     1d4:	a019                	j	1da <__riscv_save_4+0x4>

000001d6 <__riscv_save_4>:
     1d6:	7139                	addi	sp,sp,-64
     1d8:	5301                	li	t1,-32
     1da:	d05a                	sw	s6,32(sp)
     1dc:	d256                	sw	s5,36(sp)
     1de:	d452                	sw	s4,40(sp)
     1e0:	d64e                	sw	s3,44(sp)
     1e2:	d84a                	sw	s2,48(sp)
     1e4:	da26                	sw	s1,52(sp)
     1e6:	dc22                	sw	s0,56(sp)
     1e8:	de06                	sw	ra,60(sp)
     1ea:	40610133          	sub	sp,sp,t1
     1ee:	8282                	jr	t0

000001f0 <__riscv_save_0>:
     1f0:	1141                	addi	sp,sp,-16
     1f2:	c04a                	sw	s2,0(sp)
     1f4:	c226                	sw	s1,4(sp)
     1f6:	c422                	sw	s0,8(sp)
     1f8:	c606                	sw	ra,12(sp)
     1fa:	8282                	jr	t0

000001fc <__riscv_restore_12>:
     1fc:	4db2                	lw	s11,12(sp)
     1fe:	0141                	addi	sp,sp,16

00000200 <__riscv_restore_10>:
     200:	4d02                	lw	s10,0(sp)
     202:	4c92                	lw	s9,4(sp)
     204:	4c22                	lw	s8,8(sp)
     206:	4bb2                	lw	s7,12(sp)
     208:	0141                	addi	sp,sp,16

0000020a <__riscv_restore_4>:
     20a:	4b02                	lw	s6,0(sp)
     20c:	4a92                	lw	s5,4(sp)
     20e:	4a22                	lw	s4,8(sp)
     210:	49b2                	lw	s3,12(sp)
     212:	0141                	addi	sp,sp,16

00000214 <__riscv_restore_0>:
     214:	4902                	lw	s2,0(sp)
     216:	4492                	lw	s1,4(sp)
     218:	4422                	lw	s0,8(sp)
     21a:	40b2                	lw	ra,12(sp)
     21c:	0141                	addi	sp,sp,16
     21e:	8082                	ret

00000220 <memset>:
     220:	433d                	li	t1,15
     222:	872a                	mv	a4,a0
     224:	02c37363          	bgeu	t1,a2,24a <memset+0x2a>
     228:	00f77793          	andi	a5,a4,15
     22c:	efbd                	bnez	a5,2aa <memset+0x8a>
     22e:	e5ad                	bnez	a1,298 <memset+0x78>
     230:	ff067693          	andi	a3,a2,-16
     234:	8a3d                	andi	a2,a2,15
     236:	96ba                	add	a3,a3,a4
     238:	c30c                	sw	a1,0(a4)
     23a:	c34c                	sw	a1,4(a4)
     23c:	c70c                	sw	a1,8(a4)
     23e:	c74c                	sw	a1,12(a4)
     240:	0741                	addi	a4,a4,16
     242:	fed76be3          	bltu	a4,a3,238 <memset+0x18>
     246:	e211                	bnez	a2,24a <memset+0x2a>
     248:	8082                	ret
     24a:	40c306b3          	sub	a3,t1,a2
     24e:	068a                	slli	a3,a3,0x2
     250:	00000297          	auipc	t0,0x0
     254:	9696                	add	a3,a3,t0
     256:	00a68067          	jr	10(a3)
     25a:	00b70723          	sb	a1,14(a4)
     25e:	00b706a3          	sb	a1,13(a4)
     262:	00b70623          	sb	a1,12(a4)
     266:	00b705a3          	sb	a1,11(a4)
     26a:	00b70523          	sb	a1,10(a4)
     26e:	00b704a3          	sb	a1,9(a4)
     272:	00b70423          	sb	a1,8(a4)
     276:	00b703a3          	sb	a1,7(a4)
     27a:	00b70323          	sb	a1,6(a4)
     27e:	00b702a3          	sb	a1,5(a4)
     282:	00b70223          	sb	a1,4(a4)
     286:	00b701a3          	sb	a1,3(a4)
     28a:	00b70123          	sb	a1,2(a4)
     28e:	00b700a3          	sb	a1,1(a4)
     292:	00b70023          	sb	a1,0(a4)
     296:	8082                	ret
     298:	0ff5f593          	andi	a1,a1,255
     29c:	00859693          	slli	a3,a1,0x8
     2a0:	8dd5                	or	a1,a1,a3
     2a2:	01059693          	slli	a3,a1,0x10
     2a6:	8dd5                	or	a1,a1,a3
     2a8:	b761                	j	230 <memset+0x10>
     2aa:	00279693          	slli	a3,a5,0x2
     2ae:	00000297          	auipc	t0,0x0
     2b2:	9696                	add	a3,a3,t0
     2b4:	8286                	mv	t0,ra
     2b6:	fa8680e7          	jalr	-88(a3)
     2ba:	8096                	mv	ra,t0
     2bc:	17c1                	addi	a5,a5,-16
     2be:	8f1d                	sub	a4,a4,a5
     2c0:	963e                	add	a2,a2,a5
     2c2:	f8c374e3          	bgeu	t1,a2,24a <memset+0x2a>
     2c6:	b7a5                	j	22e <memset+0xe>

000002c8 <NMI_Handler>:
     2c8:	a001                	j	2c8 <NMI_Handler>

000002ca <HardFault_Handler>:
     2ca:	beef07b7          	lui	a5,0xbeef0
     2ce:	e000e737          	lui	a4,0xe000e
     2d2:	08078793          	addi	a5,a5,128 # beef0080 <_eusrstack+0x9eee0080>
     2d6:	c73c                	sw	a5,72(a4)
     2d8:	a001                	j	2d8 <HardFault_Handler+0xe>

000002da <SW_Handler>:
     2da:	6819                	lui	a6,0x6
     2dc:	8802                	jr	a6
     2de:	a001                	j	2de <SW_Handler+0x4>

000002e0 <main>:
     2e0:	f11ff2ef          	jal	t0,1f0 <__riscv_save_0>
     2e4:	4509                	li	a0,2
     2e6:	2145                	jal	786 <NVIC_PriorityGroupConfig>
     2e8:	2a11                	jal	3fc <SystemCoreClockUpdate>
     2ea:	4fb000ef          	jal	ra,fe4 <Delay_Init>
     2ee:	6571                	lui	a0,0x1c
     2f0:	20050513          	addi	a0,a0,512 # 1c200 <_data_lma+0x18c3c>
     2f4:	551000ef          	jal	ra,1044 <USART_Printf_Init>
     2f8:	495000ef          	jal	ra,f8c <scheduler_init>
     2fc:	4ad000ef          	jal	ra,fa8 <scheduler_run>
     300:	bff5                	j	2fc <main+0x1c>

00000302 <SystemInit>:
     302:	400217b7          	lui	a5,0x40021
     306:	4398                	lw	a4,0(a5)
     308:	f0ff06b7          	lui	a3,0xf0ff0
     30c:	1141                	addi	sp,sp,-16
     30e:	00176713          	ori	a4,a4,1
     312:	c398                	sw	a4,0(a5)
     314:	43d8                	lw	a4,4(a5)
     316:	00020637          	lui	a2,0x20
     31a:	8f75                	and	a4,a4,a3
     31c:	c3d8                	sw	a4,4(a5)
     31e:	4398                	lw	a4,0(a5)
     320:	fef706b7          	lui	a3,0xfef70
     324:	16fd                	addi	a3,a3,-1
     326:	8f75                	and	a4,a4,a3
     328:	c398                	sw	a4,0(a5)
     32a:	4398                	lw	a4,0(a5)
     32c:	fffc06b7          	lui	a3,0xfffc0
     330:	16fd                	addi	a3,a3,-1
     332:	8f75                	and	a4,a4,a3
     334:	c398                	sw	a4,0(a5)
     336:	43d8                	lw	a4,4(a5)
     338:	ff0106b7          	lui	a3,0xff010
     33c:	16fd                	addi	a3,a3,-1
     33e:	8f75                	and	a4,a4,a3
     340:	c3d8                	sw	a4,4(a5)
     342:	4398                	lw	a4,0(a5)
     344:	ec0006b7          	lui	a3,0xec000
     348:	16fd                	addi	a3,a3,-1
     34a:	8f75                	and	a4,a4,a3
     34c:	c398                	sw	a4,0(a5)
     34e:	00ff0737          	lui	a4,0xff0
     352:	c798                	sw	a4,8(a5)
     354:	0207a623          	sw	zero,44(a5) # 4002102c <_eusrstack+0x2001102c>
     358:	c402                	sw	zero,8(sp)
     35a:	c602                	sw	zero,12(sp)
     35c:	4398                	lw	a4,0(a5)
     35e:	66c1                	lui	a3,0x10
     360:	8f55                	or	a4,a4,a3
     362:	c398                	sw	a4,0(a5)
     364:	400216b7          	lui	a3,0x40021
     368:	6705                	lui	a4,0x1
     36a:	429c                	lw	a5,0(a3)
     36c:	8ff1                	and	a5,a5,a2
     36e:	c63e                	sw	a5,12(sp)
     370:	47a2                	lw	a5,8(sp)
     372:	0785                	addi	a5,a5,1
     374:	c43e                	sw	a5,8(sp)
     376:	47b2                	lw	a5,12(sp)
     378:	e781                	bnez	a5,380 <SystemInit+0x7e>
     37a:	47a2                	lw	a5,8(sp)
     37c:	fee797e3          	bne	a5,a4,36a <SystemInit+0x68>
     380:	400217b7          	lui	a5,0x40021
     384:	439c                	lw	a5,0(a5)
     386:	00e79713          	slli	a4,a5,0xe
     38a:	06075763          	bgez	a4,3f8 <SystemInit+0xf6>
     38e:	4785                	li	a5,1
     390:	c63e                	sw	a5,12(sp)
     392:	4732                	lw	a4,12(sp)
     394:	4785                	li	a5,1
     396:	04f71f63          	bne	a4,a5,3f4 <SystemInit+0xf2>
     39a:	400217b7          	lui	a5,0x40021
     39e:	43d8                	lw	a4,4(a5)
     3a0:	ffc106b7          	lui	a3,0xffc10
     3a4:	16fd                	addi	a3,a3,-1
     3a6:	c3d8                	sw	a4,4(a5)
     3a8:	43d8                	lw	a4,4(a5)
     3aa:	c3d8                	sw	a4,4(a5)
     3ac:	43d8                	lw	a4,4(a5)
     3ae:	40076713          	ori	a4,a4,1024
     3b2:	c3d8                	sw	a4,4(a5)
     3b4:	43d8                	lw	a4,4(a5)
     3b6:	8f75                	and	a4,a4,a3
     3b8:	c3d8                	sw	a4,4(a5)
     3ba:	43d8                	lw	a4,4(a5)
     3bc:	002906b7          	lui	a3,0x290
     3c0:	8f55                	or	a4,a4,a3
     3c2:	c3d8                	sw	a4,4(a5)
     3c4:	4398                	lw	a4,0(a5)
     3c6:	010006b7          	lui	a3,0x1000
     3ca:	8f55                	or	a4,a4,a3
     3cc:	c398                	sw	a4,0(a5)
     3ce:	4398                	lw	a4,0(a5)
     3d0:	00671693          	slli	a3,a4,0x6
     3d4:	fe06dde3          	bgez	a3,3ce <SystemInit+0xcc>
     3d8:	43d8                	lw	a4,4(a5)
     3da:	400216b7          	lui	a3,0x40021
     3de:	9b71                	andi	a4,a4,-4
     3e0:	c3d8                	sw	a4,4(a5)
     3e2:	43d8                	lw	a4,4(a5)
     3e4:	00276713          	ori	a4,a4,2
     3e8:	c3d8                	sw	a4,4(a5)
     3ea:	4721                	li	a4,8
     3ec:	42dc                	lw	a5,4(a3)
     3ee:	8bb1                	andi	a5,a5,12
     3f0:	fee79ee3          	bne	a5,a4,3ec <SystemInit+0xea>
     3f4:	0141                	addi	sp,sp,16
     3f6:	8082                	ret
     3f8:	c602                	sw	zero,12(sp)
     3fa:	bf61                	j	392 <SystemInit+0x90>

000003fc <SystemCoreClockUpdate>:
     3fc:	400216b7          	lui	a3,0x40021
     400:	42d8                	lw	a4,4(a3)
     402:	200007b7          	lui	a5,0x20000
     406:	4611                	li	a2,4
     408:	8b31                	andi	a4,a4,12
     40a:	09078793          	addi	a5,a5,144 # 20000090 <SystemCoreClock>
     40e:	00c70563          	beq	a4,a2,418 <SystemCoreClockUpdate+0x1c>
     412:	4621                	li	a2,8
     414:	02c70863          	beq	a4,a2,444 <SystemCoreClockUpdate+0x48>
     418:	007a1737          	lui	a4,0x7a1
     41c:	20070713          	addi	a4,a4,512 # 7a1200 <_data_lma+0x79dc3c>
     420:	c398                	sw	a4,0(a5)
     422:	40021737          	lui	a4,0x40021
     426:	4358                	lw	a4,4(a4)
     428:	8311                	srli	a4,a4,0x4
     42a:	00f77693          	andi	a3,a4,15
     42e:	20000737          	lui	a4,0x20000
     432:	00070713          	mv	a4,a4
     436:	9736                	add	a4,a4,a3
     438:	2314                	lbu	a3,0(a4)
     43a:	4398                	lw	a4,0(a5)
     43c:	00d75733          	srl	a4,a4,a3
     440:	c398                	sw	a4,0(a5)
     442:	8082                	ret
     444:	42d8                	lw	a4,4(a3)
     446:	42d4                	lw	a3,4(a3)
     448:	6641                	lui	a2,0x10
     44a:	8349                	srli	a4,a4,0x12
     44c:	8b3d                	andi	a4,a4,15
     44e:	8ef1                	and	a3,a3,a2
     450:	00270613          	addi	a2,a4,2 # 20000002 <_data_vma+0x2>
     454:	cf15                	beqz	a4,490 <SystemCoreClockUpdate+0x94>
     456:	473d                	li	a4,15
     458:	02e60f63          	beq	a2,a4,496 <SystemCoreClockUpdate+0x9a>
     45c:	4741                	li	a4,16
     45e:	02e60f63          	beq	a2,a4,49c <SystemCoreClockUpdate+0xa0>
     462:	4745                	li	a4,17
     464:	4581                	li	a1,0
     466:	00e61363          	bne	a2,a4,46c <SystemCoreClockUpdate+0x70>
     46a:	4641                	li	a2,16
     46c:	e2a1                	bnez	a3,4ac <SystemCoreClockUpdate+0xb0>
     46e:	40024737          	lui	a4,0x40024
     472:	80072703          	lw	a4,-2048(a4) # 40023800 <_eusrstack+0x20013800>
     476:	8b41                	andi	a4,a4,16
     478:	c70d                	beqz	a4,4a2 <SystemCoreClockUpdate+0xa6>
     47a:	007a1737          	lui	a4,0x7a1
     47e:	20070713          	addi	a4,a4,512 # 7a1200 <_data_lma+0x79dc3c>
     482:	02c70633          	mul	a2,a4,a2
     486:	c390                	sw	a2,0(a5)
     488:	ddc9                	beqz	a1,422 <SystemCoreClockUpdate+0x26>
     48a:	4398                	lw	a4,0(a5)
     48c:	8305                	srli	a4,a4,0x1
     48e:	bf49                	j	420 <SystemCoreClockUpdate+0x24>
     490:	4581                	li	a1,0
     492:	4649                	li	a2,18
     494:	bfe1                	j	46c <SystemCoreClockUpdate+0x70>
     496:	4585                	li	a1,1
     498:	4635                	li	a2,13
     49a:	bfc9                	j	46c <SystemCoreClockUpdate+0x70>
     49c:	4581                	li	a1,0
     49e:	463d                	li	a2,15
     4a0:	b7f1                	j	46c <SystemCoreClockUpdate+0x70>
     4a2:	003d1737          	lui	a4,0x3d1
     4a6:	90070713          	addi	a4,a4,-1792 # 3d0900 <_data_lma+0x3cd33c>
     4aa:	bfe1                	j	482 <SystemCoreClockUpdate+0x86>
     4ac:	40021537          	lui	a0,0x40021
     4b0:	5558                	lw	a4,44(a0)
     4b2:	00f71693          	slli	a3,a4,0xf
     4b6:	5558                	lw	a4,44(a0)
     4b8:	0406df63          	bgez	a3,516 <SystemCoreClockUpdate+0x11a>
     4bc:	8311                	srli	a4,a4,0x4
     4be:	8b3d                	andi	a4,a4,15
     4c0:	00170693          	addi	a3,a4,1
     4c4:	007a1737          	lui	a4,0x7a1
     4c8:	20070713          	addi	a4,a4,512 # 7a1200 <_data_lma+0x79dc3c>
     4cc:	02d75733          	divu	a4,a4,a3
     4d0:	c398                	sw	a4,0(a5)
     4d2:	5554                	lw	a3,44(a0)
     4d4:	82a1                	srli	a3,a3,0x8
     4d6:	8abd                	andi	a3,a3,15
     4d8:	e28d                	bnez	a3,4fa <SystemCoreClockUpdate+0xfe>
     4da:	4695                	li	a3,5
     4dc:	02d70733          	mul	a4,a4,a3
     4e0:	8305                	srli	a4,a4,0x1
     4e2:	c398                	sw	a4,0(a5)
     4e4:	40021737          	lui	a4,0x40021
     4e8:	5758                	lw	a4,44(a4)
     4ea:	4394                	lw	a3,0(a5)
     4ec:	8b3d                	andi	a4,a4,15
     4ee:	0705                	addi	a4,a4,1
     4f0:	02e6d733          	divu	a4,a3,a4
     4f4:	c398                	sw	a4,0(a5)
     4f6:	4398                	lw	a4,0(a5)
     4f8:	b769                	j	482 <SystemCoreClockUpdate+0x86>
     4fa:	4505                	li	a0,1
     4fc:	00a69463          	bne	a3,a0,504 <SystemCoreClockUpdate+0x108>
     500:	46e5                	li	a3,25
     502:	bfe9                	j	4dc <SystemCoreClockUpdate+0xe0>
     504:	453d                	li	a0,15
     506:	00a69663          	bne	a3,a0,512 <SystemCoreClockUpdate+0x116>
     50a:	46d1                	li	a3,20
     50c:	02e68733          	mul	a4,a3,a4
     510:	bfc9                	j	4e2 <SystemCoreClockUpdate+0xe6>
     512:	0689                	addi	a3,a3,2
     514:	bfe5                	j	50c <SystemCoreClockUpdate+0x110>
     516:	8b3d                	andi	a4,a4,15
     518:	00170693          	addi	a3,a4,1 # 40021001 <_eusrstack+0x20011001>
     51c:	007a1737          	lui	a4,0x7a1
     520:	20070713          	addi	a4,a4,512 # 7a1200 <_data_lma+0x79dc3c>
     524:	02d75733          	divu	a4,a4,a3
     528:	b7f1                	j	4f4 <SystemCoreClockUpdate+0xf8>

0000052a <ADC1_2_IRQHandler>:
     52a:	a001                	j	52a <ADC1_2_IRQHandler>

0000052c <handle_reset>:
     52c:	20000197          	auipc	gp,0x20000
     530:	36418193          	addi	gp,gp,868 # 20000890 <__global_pointer$>
     534:	20010117          	auipc	sp,0x20010
     538:	acc10113          	addi	sp,sp,-1332 # 20010000 <_eusrstack>
     53c:	00003517          	auipc	a0,0x3
     540:	08850513          	addi	a0,a0,136 # 35c4 <_data_lma>
     544:	20000597          	auipc	a1,0x20000
     548:	abc58593          	addi	a1,a1,-1348 # 20000000 <_data_vma>
     54c:	82018613          	addi	a2,gp,-2016 # 200000b0 <_edata>
     550:	00c5fa63          	bgeu	a1,a2,564 <handle_reset+0x38>
     554:	00052283          	lw	t0,0(a0)
     558:	0055a023          	sw	t0,0(a1)
     55c:	0511                	addi	a0,a0,4
     55e:	0591                	addi	a1,a1,4
     560:	fec5eae3          	bltu	a1,a2,554 <handle_reset+0x28>
     564:	82018513          	addi	a0,gp,-2016 # 200000b0 <_edata>
     568:	46018593          	addi	a1,gp,1120 # 20000cf0 <_ebss>
     56c:	00b57763          	bgeu	a0,a1,57a <handle_reset+0x4e>
     570:	00052023          	sw	zero,0(a0)
     574:	0511                	addi	a0,a0,4
     576:	feb56de3          	bltu	a0,a1,570 <handle_reset+0x44>
     57a:	42fd                	li	t0,31
     57c:	bc029073          	csrw	0xbc0,t0
     580:	42ad                	li	t0,11
     582:	80429073          	csrw	0x804,t0
     586:	000062b7          	lui	t0,0x6
     58a:	08828293          	addi	t0,t0,136 # 6088 <_data_lma+0x2ac4>
     58e:	30029073          	csrw	mstatus,t0
     592:	00000297          	auipc	t0,0x0
     596:	a7228293          	addi	t0,t0,-1422 # 4 <_einit>
     59a:	0032e293          	ori	t0,t0,3
     59e:	30529073          	csrw	mtvec,t0
     5a2:	d61ff0ef          	jal	ra,302 <SystemInit>
     5a6:	00000297          	auipc	t0,0x0
     5aa:	d3a28293          	addi	t0,t0,-710 # 2e0 <main>
     5ae:	34129073          	csrw	mepc,t0
     5b2:	30200073          	mret

000005b6 <FLASH_Unlock>:
     5b6:	456707b7          	lui	a5,0x45670
     5ba:	40022737          	lui	a4,0x40022
     5be:	12378793          	addi	a5,a5,291 # 45670123 <_eusrstack+0x25660123>
     5c2:	c35c                	sw	a5,4(a4)
     5c4:	cdef97b7          	lui	a5,0xcdef9
     5c8:	9ab78793          	addi	a5,a5,-1621 # cdef89ab <_eusrstack+0xadee89ab>
     5cc:	c35c                	sw	a5,4(a4)
     5ce:	8082                	ret

000005d0 <FLASH_Lock>:
     5d0:	40022737          	lui	a4,0x40022
     5d4:	4b1c                	lw	a5,16(a4)
     5d6:	0807e793          	ori	a5,a5,128
     5da:	cb1c                	sw	a5,16(a4)
     5dc:	8082                	ret

000005de <FLASH_ClearFlag>:
     5de:	400227b7          	lui	a5,0x40022
     5e2:	c7c8                	sw	a0,12(a5)
     5e4:	8082                	ret

000005e6 <FLASH_GetBank1Status>:
     5e6:	40022737          	lui	a4,0x40022
     5ea:	475c                	lw	a5,12(a4)
     5ec:	4505                	li	a0,1
     5ee:	8b85                	andi	a5,a5,1
     5f0:	e791                	bnez	a5,5fc <FLASH_GetBank1Status+0x16>
     5f2:	4748                	lw	a0,12(a4)
     5f4:	8941                	andi	a0,a0,16
     5f6:	00153513          	seqz	a0,a0
     5fa:	050d                	addi	a0,a0,3
     5fc:	8082                	ret

000005fe <FLASH_WaitForLastOperation>:
     5fe:	bf3ff2ef          	jal	t0,1f0 <__riscv_save_0>
     602:	842a                	mv	s0,a0
     604:	4485                	li	s1,1
     606:	37c5                	jal	5e6 <FLASH_GetBank1Status>
     608:	00951863          	bne	a0,s1,618 <FLASH_WaitForLastOperation+0x1a>
     60c:	e019                	bnez	s0,612 <FLASH_WaitForLastOperation+0x14>
     60e:	4515                	li	a0,5
     610:	a029                	j	61a <FLASH_WaitForLastOperation+0x1c>
     612:	3fd1                	jal	5e6 <FLASH_GetBank1Status>
     614:	147d                	addi	s0,s0,-1
     616:	bfcd                	j	608 <FLASH_WaitForLastOperation+0xa>
     618:	d87d                	beqz	s0,60e <FLASH_WaitForLastOperation+0x10>
     61a:	beed                	j	214 <__riscv_restore_0>

0000061c <FLASH_ProgramWord>:
     61c:	bbbff2ef          	jal	t0,1d6 <__riscv_save_4>
     620:	1141                	addi	sp,sp,-16
     622:	892a                	mv	s2,a0
     624:	6515                	lui	a0,0x5
     626:	84ae                	mv	s1,a1
     628:	c602                	sw	zero,12(sp)
     62a:	4991                	li	s3,4
     62c:	3fc9                	jal	5fe <FLASH_WaitForLastOperation>
     62e:	03351b63          	bne	a0,s3,664 <FLASH_ProgramWord+0x48>
     632:	40022437          	lui	s0,0x40022
     636:	481c                	lw	a5,16(s0)
     638:	6515                	lui	a0,0x5
     63a:	0017e793          	ori	a5,a5,1
     63e:	c81c                	sw	a5,16(s0)
     640:	01049793          	slli	a5,s1,0x10
     644:	83c1                	srli	a5,a5,0x10
     646:	00f91023          	sh	a5,0(s2)
     64a:	3f55                	jal	5fe <FLASH_WaitForLastOperation>
     64c:	01351963          	bne	a0,s3,65e <FLASH_ProgramWord+0x42>
     650:	0909                	addi	s2,s2,2
     652:	c64a                	sw	s2,12(sp)
     654:	47b2                	lw	a5,12(sp)
     656:	80c1                	srli	s1,s1,0x10
     658:	6515                	lui	a0,0x5
     65a:	a386                	sh	s1,0(a5)
     65c:	374d                	jal	5fe <FLASH_WaitForLastOperation>
     65e:	481c                	lw	a5,16(s0)
     660:	9bf9                	andi	a5,a5,-2
     662:	c81c                	sw	a5,16(s0)
     664:	0141                	addi	sp,sp,16
     666:	b655                	j	20a <__riscv_restore_4>

00000668 <FLASH_ErasePage_Fast>:
     668:	400227b7          	lui	a5,0x40022
     66c:	4b98                	lw	a4,16(a5)
     66e:	000206b7          	lui	a3,0x20
     672:	f0057513          	andi	a0,a0,-256
     676:	8f55                	or	a4,a4,a3
     678:	cb98                	sw	a4,16(a5)
     67a:	cbc8                	sw	a0,20(a5)
     67c:	4b98                	lw	a4,16(a5)
     67e:	04076713          	ori	a4,a4,64
     682:	cb98                	sw	a4,16(a5)
     684:	47d8                	lw	a4,12(a5)
     686:	8b05                	andi	a4,a4,1
     688:	ff75                	bnez	a4,684 <FLASH_ErasePage_Fast+0x1c>
     68a:	4b98                	lw	a4,16(a5)
     68c:	7681                	lui	a3,0xfffe0
     68e:	16fd                	addi	a3,a3,-1
     690:	8f75                	and	a4,a4,a3
     692:	cb98                	sw	a4,16(a5)
     694:	8082                	ret

00000696 <FLASH_EraseBlock_32K_Fast>:
     696:	77e1                	lui	a5,0xffff8
     698:	8d7d                	and	a0,a0,a5
     69a:	400227b7          	lui	a5,0x40022
     69e:	4b98                	lw	a4,16(a5)
     6a0:	000406b7          	lui	a3,0x40
     6a4:	8f55                	or	a4,a4,a3
     6a6:	cb98                	sw	a4,16(a5)
     6a8:	cbc8                	sw	a0,20(a5)
     6aa:	4b98                	lw	a4,16(a5)
     6ac:	04076713          	ori	a4,a4,64
     6b0:	cb98                	sw	a4,16(a5)
     6b2:	47d8                	lw	a4,12(a5)
     6b4:	8b05                	andi	a4,a4,1
     6b6:	ff75                	bnez	a4,6b2 <FLASH_EraseBlock_32K_Fast+0x1c>
     6b8:	4b98                	lw	a4,16(a5)
     6ba:	fffc06b7          	lui	a3,0xfffc0
     6be:	16fd                	addi	a3,a3,-1
     6c0:	8f75                	and	a4,a4,a3
     6c2:	cb98                	sw	a4,16(a5)
     6c4:	8082                	ret

000006c6 <GPIO_Init>:
     6c6:	459c                	lw	a5,8(a1)
     6c8:	0107f713          	andi	a4,a5,16
     6cc:	00f7f813          	andi	a6,a5,15
     6d0:	c701                	beqz	a4,6d8 <GPIO_Init+0x12>
     6d2:	41d8                	lw	a4,4(a1)
     6d4:	00e86833          	or	a6,a6,a4
     6d8:	218e                	lhu	a1,0(a1)
     6da:	0ff5f713          	andi	a4,a1,255
     6de:	c339                	beqz	a4,724 <GPIO_Init+0x5e>
     6e0:	4118                	lw	a4,0(a0)
     6e2:	4681                	li	a3,0
     6e4:	4e85                	li	t4,1
     6e6:	4f3d                	li	t5,15
     6e8:	02800f93          	li	t6,40
     6ec:	04800293          	li	t0,72
     6f0:	4e21                	li	t3,8
     6f2:	00de9633          	sll	a2,t4,a3
     6f6:	00c5f8b3          	and	a7,a1,a2
     6fa:	03161163          	bne	a2,a7,71c <GPIO_Init+0x56>
     6fe:	00269893          	slli	a7,a3,0x2
     702:	011f1333          	sll	t1,t5,a7
     706:	fff34313          	not	t1,t1
     70a:	00e37733          	and	a4,t1,a4
     70e:	011818b3          	sll	a7,a6,a7
     712:	00e8e733          	or	a4,a7,a4
     716:	05f79f63          	bne	a5,t6,774 <GPIO_Init+0xae>
     71a:	c950                	sw	a2,20(a0)
     71c:	0685                	addi	a3,a3,1
     71e:	fdc69ae3          	bne	a3,t3,6f2 <GPIO_Init+0x2c>
     722:	c118                	sw	a4,0(a0)
     724:	0ff00713          	li	a4,255
     728:	04b77563          	bgeu	a4,a1,772 <GPIO_Init+0xac>
     72c:	4154                	lw	a3,4(a0)
     72e:	4621                	li	a2,8
     730:	4e85                	li	t4,1
     732:	4f3d                	li	t5,15
     734:	02800f93          	li	t6,40
     738:	04800293          	li	t0,72
     73c:	4e41                	li	t3,16
     73e:	00ce98b3          	sll	a7,t4,a2
     742:	0115f733          	and	a4,a1,a7
     746:	02e89263          	bne	a7,a4,76a <GPIO_Init+0xa4>
     74a:	00261713          	slli	a4,a2,0x2
     74e:	1701                	addi	a4,a4,-32
     750:	00ef1333          	sll	t1,t5,a4
     754:	fff34313          	not	t1,t1
     758:	00d376b3          	and	a3,t1,a3
     75c:	00e81733          	sll	a4,a6,a4
     760:	8ed9                	or	a3,a3,a4
     762:	01f79d63          	bne	a5,t6,77c <GPIO_Init+0xb6>
     766:	01152a23          	sw	a7,20(a0) # 5014 <_data_lma+0x1a50>
     76a:	0605                	addi	a2,a2,1
     76c:	fdc619e3          	bne	a2,t3,73e <GPIO_Init+0x78>
     770:	c154                	sw	a3,4(a0)
     772:	8082                	ret
     774:	fa5794e3          	bne	a5,t0,71c <GPIO_Init+0x56>
     778:	c910                	sw	a2,16(a0)
     77a:	b74d                	j	71c <GPIO_Init+0x56>
     77c:	fe5797e3          	bne	a5,t0,76a <GPIO_Init+0xa4>
     780:	01152823          	sw	a7,16(a0)
     784:	b7dd                	j	76a <GPIO_Init+0xa4>

00000786 <NVIC_PriorityGroupConfig>:
     786:	82a1a023          	sw	a0,-2016(gp) # 200000b0 <_edata>
     78a:	8082                	ret

0000078c <NVIC_Init>:
     78c:	8201a703          	lw	a4,-2016(gp) # 200000b0 <_edata>
     790:	4789                	li	a5,2
     792:	2110                	lbu	a2,0(a0)
     794:	02f71163          	bne	a4,a5,7b6 <NVIC_Init+0x2a>
     798:	3114                	lbu	a3,1(a0)
     79a:	478d                	li	a5,3
     79c:	00d7ed63          	bltu	a5,a3,7b6 <NVIC_Init+0x2a>
     7a0:	213c                	lbu	a5,2(a0)
     7a2:	069a                	slli	a3,a3,0x6
     7a4:	e000e737          	lui	a4,0xe000e
     7a8:	0796                	slli	a5,a5,0x5
     7aa:	8fd5                	or	a5,a5,a3
     7ac:	0ff7f793          	andi	a5,a5,255
     7b0:	9732                	add	a4,a4,a2
     7b2:	40f70023          	sb	a5,1024(a4) # e000e400 <_eusrstack+0xbfffe400>
     7b6:	4154                	lw	a3,4(a0)
     7b8:	4705                	li	a4,1
     7ba:	00565793          	srli	a5,a2,0x5
     7be:	00c71733          	sll	a4,a4,a2
     7c2:	ca89                	beqz	a3,7d4 <NVIC_Init+0x48>
     7c4:	04078793          	addi	a5,a5,64 # 40022040 <_eusrstack+0x20012040>
     7c8:	078a                	slli	a5,a5,0x2
     7ca:	e000e6b7          	lui	a3,0xe000e
     7ce:	97b6                	add	a5,a5,a3
     7d0:	c398                	sw	a4,0(a5)
     7d2:	8082                	ret
     7d4:	06078793          	addi	a5,a5,96
     7d8:	e000e6b7          	lui	a3,0xe000e
     7dc:	078a                	slli	a5,a5,0x2
     7de:	97b6                	add	a5,a5,a3
     7e0:	c398                	sw	a4,0(a5)
     7e2:	0000100f          	fence.i
     7e6:	8082                	ret

000007e8 <RCC_DeInit>:
     7e8:	400217b7          	lui	a5,0x40021
     7ec:	4398                	lw	a4,0(a5)
     7ee:	f8ff06b7          	lui	a3,0xf8ff0
     7f2:	00176713          	ori	a4,a4,1
     7f6:	c398                	sw	a4,0(a5)
     7f8:	43d8                	lw	a4,4(a5)
     7fa:	8f75                	and	a4,a4,a3
     7fc:	c3d8                	sw	a4,4(a5)
     7fe:	4398                	lw	a4,0(a5)
     800:	fef706b7          	lui	a3,0xfef70
     804:	16fd                	addi	a3,a3,-1
     806:	8f75                	and	a4,a4,a3
     808:	c398                	sw	a4,0(a5)
     80a:	4398                	lw	a4,0(a5)
     80c:	fffc06b7          	lui	a3,0xfffc0
     810:	16fd                	addi	a3,a3,-1
     812:	8f75                	and	a4,a4,a3
     814:	c398                	sw	a4,0(a5)
     816:	43d8                	lw	a4,4(a5)
     818:	ff8106b7          	lui	a3,0xff810
     81c:	16fd                	addi	a3,a3,-1
     81e:	8f75                	and	a4,a4,a3
     820:	c3d8                	sw	a4,4(a5)
     822:	4398                	lw	a4,0(a5)
     824:	ec0006b7          	lui	a3,0xec000
     828:	16fd                	addi	a3,a3,-1
     82a:	8f75                	and	a4,a4,a3
     82c:	c398                	sw	a4,0(a5)
     82e:	00ff0737          	lui	a4,0xff0
     832:	c798                	sw	a4,8(a5)
     834:	0207a623          	sw	zero,44(a5) # 4002102c <_eusrstack+0x2001102c>
     838:	8082                	ret

0000083a <RCC_GetClocksFreq>:
     83a:	40021737          	lui	a4,0x40021
     83e:	435c                	lw	a5,4(a4)
     840:	4691                	li	a3,4
     842:	8bb1                	andi	a5,a5,12
     844:	00d78563          	beq	a5,a3,84e <RCC_GetClocksFreq+0x14>
     848:	46a1                	li	a3,8
     84a:	06d78263          	beq	a5,a3,8ae <RCC_GetClocksFreq+0x74>
     84e:	007a17b7          	lui	a5,0x7a1
     852:	20078793          	addi	a5,a5,512 # 7a1200 <_data_lma+0x79dc3c>
     856:	c11c                	sw	a5,0(a0)
     858:	40021637          	lui	a2,0x40021
     85c:	425c                	lw	a5,4(a2)
     85e:	20000737          	lui	a4,0x20000
     862:	01070713          	addi	a4,a4,16 # 20000010 <APBAHBPrescTable>
     866:	8391                	srli	a5,a5,0x4
     868:	8bbd                	andi	a5,a5,15
     86a:	97ba                	add	a5,a5,a4
     86c:	2394                	lbu	a3,0(a5)
     86e:	411c                	lw	a5,0(a0)
     870:	00d7d7b3          	srl	a5,a5,a3
     874:	c15c                	sw	a5,4(a0)
     876:	4254                	lw	a3,4(a2)
     878:	82a1                	srli	a3,a3,0x8
     87a:	8a9d                	andi	a3,a3,7
     87c:	96ba                	add	a3,a3,a4
     87e:	2294                	lbu	a3,0(a3)
     880:	00d7d6b3          	srl	a3,a5,a3
     884:	c514                	sw	a3,8(a0)
     886:	4254                	lw	a3,4(a2)
     888:	82ad                	srli	a3,a3,0xb
     88a:	8a9d                	andi	a3,a3,7
     88c:	9736                	add	a4,a4,a3
     88e:	2318                	lbu	a4,0(a4)
     890:	00e7d7b3          	srl	a5,a5,a4
     894:	c55c                	sw	a5,12(a0)
     896:	4258                	lw	a4,4(a2)
     898:	8339                	srli	a4,a4,0xe
     89a:	00377693          	andi	a3,a4,3
     89e:	80418713          	addi	a4,gp,-2044 # 20000094 <ADCPrescTable>
     8a2:	9736                	add	a4,a4,a3
     8a4:	2318                	lbu	a4,0(a4)
     8a6:	02e7d7b3          	divu	a5,a5,a4
     8aa:	c91c                	sw	a5,16(a0)
     8ac:	8082                	ret
     8ae:	435c                	lw	a5,4(a4)
     8b0:	4358                	lw	a4,4(a4)
     8b2:	66c1                	lui	a3,0x10
     8b4:	83c9                	srli	a5,a5,0x12
     8b6:	8f75                	and	a4,a4,a3
     8b8:	1ffff6b7          	lui	a3,0x1ffff
     8bc:	70c6a683          	lw	a3,1804(a3) # 1ffff70c <_data_lma+0x1fffc148>
     8c0:	8bbd                	andi	a5,a5,15
     8c2:	0789                	addi	a5,a5,2
     8c4:	01169613          	slli	a2,a3,0x11
     8c8:	00064863          	bltz	a2,8d8 <RCC_GetClocksFreq+0x9e>
     8cc:	46c5                	li	a3,17
     8ce:	4601                	li	a2,0
     8d0:	02d79263          	bne	a5,a3,8f4 <RCC_GetClocksFreq+0xba>
     8d4:	47c9                	li	a5,18
     8d6:	a839                	j	8f4 <RCC_GetClocksFreq+0xba>
     8d8:	4689                	li	a3,2
     8da:	02d78f63          	beq	a5,a3,918 <RCC_GetClocksFreq+0xde>
     8de:	46bd                	li	a3,15
     8e0:	02d78e63          	beq	a5,a3,91c <RCC_GetClocksFreq+0xe2>
     8e4:	46c1                	li	a3,16
     8e6:	02d78e63          	beq	a5,a3,922 <RCC_GetClocksFreq+0xe8>
     8ea:	46c5                	li	a3,17
     8ec:	4601                	li	a2,0
     8ee:	00d79363          	bne	a5,a3,8f4 <RCC_GetClocksFreq+0xba>
     8f2:	47c1                	li	a5,16
     8f4:	ef1d                	bnez	a4,932 <RCC_GetClocksFreq+0xf8>
     8f6:	40024737          	lui	a4,0x40024
     8fa:	80072703          	lw	a4,-2048(a4) # 40023800 <_eusrstack+0x20013800>
     8fe:	8b41                	andi	a4,a4,16
     900:	c705                	beqz	a4,928 <RCC_GetClocksFreq+0xee>
     902:	007a1737          	lui	a4,0x7a1
     906:	20070713          	addi	a4,a4,512 # 7a1200 <_data_lma+0x79dc3c>
     90a:	02f707b3          	mul	a5,a4,a5
     90e:	c11c                	sw	a5,0(a0)
     910:	d621                	beqz	a2,858 <RCC_GetClocksFreq+0x1e>
     912:	411c                	lw	a5,0(a0)
     914:	8385                	srli	a5,a5,0x1
     916:	b781                	j	856 <RCC_GetClocksFreq+0x1c>
     918:	4601                	li	a2,0
     91a:	bf6d                	j	8d4 <RCC_GetClocksFreq+0x9a>
     91c:	4605                	li	a2,1
     91e:	47b5                	li	a5,13
     920:	bfd1                	j	8f4 <RCC_GetClocksFreq+0xba>
     922:	4601                	li	a2,0
     924:	47bd                	li	a5,15
     926:	b7f9                	j	8f4 <RCC_GetClocksFreq+0xba>
     928:	003d1737          	lui	a4,0x3d1
     92c:	90070713          	addi	a4,a4,-1792 # 3d0900 <_data_lma+0x3cd33c>
     930:	bfe9                	j	90a <RCC_GetClocksFreq+0xd0>
     932:	400215b7          	lui	a1,0x40021
     936:	55d8                	lw	a4,44(a1)
     938:	00f71693          	slli	a3,a4,0xf
     93c:	55d8                	lw	a4,44(a1)
     93e:	0406df63          	bgez	a3,99c <RCC_GetClocksFreq+0x162>
     942:	8311                	srli	a4,a4,0x4
     944:	8b3d                	andi	a4,a4,15
     946:	00170693          	addi	a3,a4,1
     94a:	007a1737          	lui	a4,0x7a1
     94e:	20070713          	addi	a4,a4,512 # 7a1200 <_data_lma+0x79dc3c>
     952:	02d75733          	divu	a4,a4,a3
     956:	c118                	sw	a4,0(a0)
     958:	55d4                	lw	a3,44(a1)
     95a:	82a1                	srli	a3,a3,0x8
     95c:	8abd                	andi	a3,a3,15
     95e:	e28d                	bnez	a3,980 <RCC_GetClocksFreq+0x146>
     960:	4695                	li	a3,5
     962:	02d70733          	mul	a4,a4,a3
     966:	8305                	srli	a4,a4,0x1
     968:	c118                	sw	a4,0(a0)
     96a:	40021737          	lui	a4,0x40021
     96e:	5758                	lw	a4,44(a4)
     970:	4114                	lw	a3,0(a0)
     972:	8b3d                	andi	a4,a4,15
     974:	0705                	addi	a4,a4,1
     976:	02e6d733          	divu	a4,a3,a4
     97a:	c118                	sw	a4,0(a0)
     97c:	4118                	lw	a4,0(a0)
     97e:	b771                	j	90a <RCC_GetClocksFreq+0xd0>
     980:	4585                	li	a1,1
     982:	00b69463          	bne	a3,a1,98a <RCC_GetClocksFreq+0x150>
     986:	46e5                	li	a3,25
     988:	bfe9                	j	962 <RCC_GetClocksFreq+0x128>
     98a:	45bd                	li	a1,15
     98c:	00b69663          	bne	a3,a1,998 <RCC_GetClocksFreq+0x15e>
     990:	46d1                	li	a3,20
     992:	02e68733          	mul	a4,a3,a4
     996:	bfc9                	j	968 <RCC_GetClocksFreq+0x12e>
     998:	0689                	addi	a3,a3,2
     99a:	bfe5                	j	992 <RCC_GetClocksFreq+0x158>
     99c:	8b3d                	andi	a4,a4,15
     99e:	00170693          	addi	a3,a4,1 # 40021001 <_eusrstack+0x20011001>
     9a2:	007a1737          	lui	a4,0x7a1
     9a6:	20070713          	addi	a4,a4,512 # 7a1200 <_data_lma+0x79dc3c>
     9aa:	02d75733          	divu	a4,a4,a3
     9ae:	b7f1                	j	97a <RCC_GetClocksFreq+0x140>

000009b0 <RCC_APB2PeriphClockCmd>:
     9b0:	c599                	beqz	a1,9be <RCC_APB2PeriphClockCmd+0xe>
     9b2:	40021737          	lui	a4,0x40021
     9b6:	4f1c                	lw	a5,24(a4)
     9b8:	8d5d                	or	a0,a0,a5
     9ba:	cf08                	sw	a0,24(a4)
     9bc:	8082                	ret
     9be:	400217b7          	lui	a5,0x40021
     9c2:	4f98                	lw	a4,24(a5)
     9c4:	fff54513          	not	a0,a0
     9c8:	8d79                	and	a0,a0,a4
     9ca:	cf88                	sw	a0,24(a5)
     9cc:	8082                	ret

000009ce <RCC_APB1PeriphClockCmd>:
     9ce:	c599                	beqz	a1,9dc <RCC_APB1PeriphClockCmd+0xe>
     9d0:	40021737          	lui	a4,0x40021
     9d4:	4f5c                	lw	a5,28(a4)
     9d6:	8d5d                	or	a0,a0,a5
     9d8:	cf48                	sw	a0,28(a4)
     9da:	8082                	ret
     9dc:	400217b7          	lui	a5,0x40021
     9e0:	4fd8                	lw	a4,28(a5)
     9e2:	fff54513          	not	a0,a0
     9e6:	8d79                	and	a0,a0,a4
     9e8:	cfc8                	sw	a0,28(a5)
     9ea:	8082                	ret

000009ec <RCC_APB2PeriphResetCmd>:
     9ec:	c599                	beqz	a1,9fa <RCC_APB2PeriphResetCmd+0xe>
     9ee:	40021737          	lui	a4,0x40021
     9f2:	475c                	lw	a5,12(a4)
     9f4:	8d5d                	or	a0,a0,a5
     9f6:	c748                	sw	a0,12(a4)
     9f8:	8082                	ret
     9fa:	400217b7          	lui	a5,0x40021
     9fe:	47d8                	lw	a4,12(a5)
     a00:	fff54513          	not	a0,a0
     a04:	8d79                	and	a0,a0,a4
     a06:	c7c8                	sw	a0,12(a5)
     a08:	8082                	ret

00000a0a <RCC_APB1PeriphResetCmd>:
     a0a:	c599                	beqz	a1,a18 <RCC_APB1PeriphResetCmd+0xe>
     a0c:	40021737          	lui	a4,0x40021
     a10:	4b1c                	lw	a5,16(a4)
     a12:	8d5d                	or	a0,a0,a5
     a14:	cb08                	sw	a0,16(a4)
     a16:	8082                	ret
     a18:	400217b7          	lui	a5,0x40021
     a1c:	4b98                	lw	a4,16(a5)
     a1e:	fff54513          	not	a0,a0
     a22:	8d79                	and	a0,a0,a4
     a24:	cb88                	sw	a0,16(a5)
     a26:	8082                	ret

00000a28 <TIM_TimeBaseInit>:
     a28:	1ffff737          	lui	a4,0x1ffff
     a2c:	70472703          	lw	a4,1796(a4) # 1ffff704 <_data_lma+0x1fffc140>
     a30:	211e                	lhu	a5,0(a0)
     a32:	4691                	li	a3,4
     a34:	8311                	srli	a4,a4,0x4
     a36:	8b3d                	andi	a4,a4,15
     a38:	07c2                	slli	a5,a5,0x10
     a3a:	1771                	addi	a4,a4,-4
     a3c:	83c1                	srli	a5,a5,0x10
     a3e:	02e6e663          	bltu	a3,a4,a6a <TIM_TimeBaseInit+0x42>
     a42:	40013737          	lui	a4,0x40013
     a46:	c0070693          	addi	a3,a4,-1024 # 40012c00 <_eusrstack+0x20002c00>
     a4a:	00d50e63          	beq	a0,a3,a66 <TIM_TimeBaseInit+0x3e>
     a4e:	40070713          	addi	a4,a4,1024
     a52:	00e50a63          	beq	a0,a4,a66 <TIM_TimeBaseInit+0x3e>
     a56:	40015737          	lui	a4,0x40015
     a5a:	c0070693          	addi	a3,a4,-1024 # 40014c00 <_eusrstack+0x20004c00>
     a5e:	00d50463          	beq	a0,a3,a66 <TIM_TimeBaseInit+0x3e>
     a62:	00e51a63          	bne	a0,a4,a76 <TIM_TimeBaseInit+0x4e>
     a66:	6709                	lui	a4,0x2
     a68:	8fd9                	or	a5,a5,a4
     a6a:	40013737          	lui	a4,0x40013
     a6e:	c0070713          	addi	a4,a4,-1024 # 40012c00 <_eusrstack+0x20002c00>
     a72:	04e50263          	beq	a0,a4,ab6 <TIM_TimeBaseInit+0x8e>
     a76:	40000737          	lui	a4,0x40000
     a7a:	02e50e63          	beq	a0,a4,ab6 <TIM_TimeBaseInit+0x8e>
     a7e:	40070713          	addi	a4,a4,1024 # 40000400 <_eusrstack+0x1fff0400>
     a82:	02e50a63          	beq	a0,a4,ab6 <TIM_TimeBaseInit+0x8e>
     a86:	40001737          	lui	a4,0x40001
     a8a:	80070693          	addi	a3,a4,-2048 # 40000800 <_eusrstack+0x1fff0800>
     a8e:	02d50463          	beq	a0,a3,ab6 <TIM_TimeBaseInit+0x8e>
     a92:	c0070713          	addi	a4,a4,-1024
     a96:	02e50063          	beq	a0,a4,ab6 <TIM_TimeBaseInit+0x8e>
     a9a:	40013737          	lui	a4,0x40013
     a9e:	40070713          	addi	a4,a4,1024 # 40013400 <_eusrstack+0x20003400>
     aa2:	00e50a63          	beq	a0,a4,ab6 <TIM_TimeBaseInit+0x8e>
     aa6:	40015737          	lui	a4,0x40015
     aaa:	c0070693          	addi	a3,a4,-1024 # 40014c00 <_eusrstack+0x20004c00>
     aae:	00d50463          	beq	a0,a3,ab6 <TIM_TimeBaseInit+0x8e>
     ab2:	00e51863          	bne	a0,a4,ac2 <TIM_TimeBaseInit+0x9a>
     ab6:	f8f7f793          	andi	a5,a5,-113
     aba:	21ba                	lhu	a4,2(a1)
     abc:	07c2                	slli	a5,a5,0x10
     abe:	83c1                	srli	a5,a5,0x10
     ac0:	8fd9                	or	a5,a5,a4
     ac2:	40001737          	lui	a4,0x40001
     ac6:	00e50c63          	beq	a0,a4,ade <TIM_TimeBaseInit+0xb6>
     aca:	40070713          	addi	a4,a4,1024 # 40001400 <_eusrstack+0x1fff1400>
     ace:	00e50863          	beq	a0,a4,ade <TIM_TimeBaseInit+0xb6>
     ad2:	cff7f793          	andi	a5,a5,-769
     ad6:	21fa                	lhu	a4,6(a1)
     ad8:	07c2                	slli	a5,a5,0x10
     ada:	83c1                	srli	a5,a5,0x10
     adc:	8fd9                	or	a5,a5,a4
     ade:	a11e                	sh	a5,0(a0)
     ae0:	21de                	lhu	a5,4(a1)
     ae2:	b55e                	sh	a5,44(a0)
     ae4:	219e                	lhu	a5,0(a1)
     ae6:	b51e                	sh	a5,40(a0)
     ae8:	400137b7          	lui	a5,0x40013
     aec:	c0078713          	addi	a4,a5,-1024 # 40012c00 <_eusrstack+0x20002c00>
     af0:	00e50e63          	beq	a0,a4,b0c <TIM_TimeBaseInit+0xe4>
     af4:	40078793          	addi	a5,a5,1024
     af8:	00f50a63          	beq	a0,a5,b0c <TIM_TimeBaseInit+0xe4>
     afc:	400157b7          	lui	a5,0x40015
     b00:	c0078713          	addi	a4,a5,-1024 # 40014c00 <_eusrstack+0x20004c00>
     b04:	00e50463          	beq	a0,a4,b0c <TIM_TimeBaseInit+0xe4>
     b08:	00f51463          	bne	a0,a5,b10 <TIM_TimeBaseInit+0xe8>
     b0c:	259c                	lbu	a5,8(a1)
     b0e:	b91e                	sh	a5,48(a0)
     b10:	4785                	li	a5,1
     b12:	a95e                	sh	a5,20(a0)
     b14:	8082                	ret

00000b16 <TIM_Cmd>:
     b16:	211e                	lhu	a5,0(a0)
     b18:	c589                	beqz	a1,b22 <TIM_Cmd+0xc>
     b1a:	0017e793          	ori	a5,a5,1
     b1e:	a11e                	sh	a5,0(a0)
     b20:	8082                	ret
     b22:	07c2                	slli	a5,a5,0x10
     b24:	83c1                	srli	a5,a5,0x10
     b26:	9bf9                	andi	a5,a5,-2
     b28:	07c2                	slli	a5,a5,0x10
     b2a:	83c1                	srli	a5,a5,0x10
     b2c:	bfcd                	j	b1e <TIM_Cmd+0x8>

00000b2e <TIM_ITConfig>:
     b2e:	255e                	lhu	a5,12(a0)
     b30:	c601                	beqz	a2,b38 <TIM_ITConfig+0xa>
     b32:	8ddd                	or	a1,a1,a5
     b34:	a54e                	sh	a1,12(a0)
     b36:	8082                	ret
     b38:	fff5c593          	not	a1,a1
     b3c:	8dfd                	and	a1,a1,a5
     b3e:	bfdd                	j	b34 <TIM_ITConfig+0x6>

00000b40 <TIM_GetITStatus>:
     b40:	291e                	lhu	a5,16(a0)
     b42:	254a                	lhu	a0,12(a0)
     b44:	8fed                	and	a5,a5,a1
     b46:	0542                	slli	a0,a0,0x10
     b48:	8141                	srli	a0,a0,0x10
     b4a:	c789                	beqz	a5,b54 <TIM_GetITStatus+0x14>
     b4c:	8d6d                	and	a0,a0,a1
     b4e:	00a03533          	snez	a0,a0
     b52:	8082                	ret
     b54:	4501                	li	a0,0
     b56:	8082                	ret

00000b58 <TIM_ClearITPendingBit>:
     b58:	fff5c593          	not	a1,a1
     b5c:	05c2                	slli	a1,a1,0x10
     b5e:	81c1                	srli	a1,a1,0x10
     b60:	a90e                	sh	a1,16(a0)
     b62:	8082                	ret

00000b64 <USART_DeInit>:
     b64:	e8cff2ef          	jal	t0,1f0 <__riscv_save_0>
     b68:	400147b7          	lui	a5,0x40014
     b6c:	80078793          	addi	a5,a5,-2048 # 40013800 <_eusrstack+0x20003800>
     b70:	00f51a63          	bne	a0,a5,b84 <USART_DeInit+0x20>
     b74:	4585                	li	a1,1
     b76:	6511                	lui	a0,0x4
     b78:	3d95                	jal	9ec <RCC_APB2PeriphResetCmd>
     b7a:	4581                	li	a1,0
     b7c:	6511                	lui	a0,0x4
     b7e:	35bd                	jal	9ec <RCC_APB2PeriphResetCmd>
     b80:	e94ff06f          	j	214 <__riscv_restore_0>
     b84:	400047b7          	lui	a5,0x40004
     b88:	40078793          	addi	a5,a5,1024 # 40004400 <_eusrstack+0x1fff4400>
     b8c:	00f51b63          	bne	a0,a5,ba2 <USART_DeInit+0x3e>
     b90:	4585                	li	a1,1
     b92:	00020537          	lui	a0,0x20
     b96:	3d95                	jal	a0a <RCC_APB1PeriphResetCmd>
     b98:	4581                	li	a1,0
     b9a:	00020537          	lui	a0,0x20
     b9e:	35b5                	jal	a0a <RCC_APB1PeriphResetCmd>
     ba0:	b7c5                	j	b80 <USART_DeInit+0x1c>
     ba2:	400057b7          	lui	a5,0x40005
     ba6:	80078713          	addi	a4,a5,-2048 # 40004800 <_eusrstack+0x1fff4800>
     baa:	00e51a63          	bne	a0,a4,bbe <USART_DeInit+0x5a>
     bae:	4585                	li	a1,1
     bb0:	00040537          	lui	a0,0x40
     bb4:	3d99                	jal	a0a <RCC_APB1PeriphResetCmd>
     bb6:	4581                	li	a1,0
     bb8:	00040537          	lui	a0,0x40
     bbc:	b7cd                	j	b9e <USART_DeInit+0x3a>
     bbe:	c0078713          	addi	a4,a5,-1024
     bc2:	00e51a63          	bne	a0,a4,bd6 <USART_DeInit+0x72>
     bc6:	4585                	li	a1,1
     bc8:	00080537          	lui	a0,0x80
     bcc:	3d3d                	jal	a0a <RCC_APB1PeriphResetCmd>
     bce:	4581                	li	a1,0
     bd0:	00080537          	lui	a0,0x80
     bd4:	b7e9                	j	b9e <USART_DeInit+0x3a>
     bd6:	00f51a63          	bne	a0,a5,bea <USART_DeInit+0x86>
     bda:	4585                	li	a1,1
     bdc:	00100537          	lui	a0,0x100
     be0:	352d                	jal	a0a <RCC_APB1PeriphResetCmd>
     be2:	4581                	li	a1,0
     be4:	00100537          	lui	a0,0x100
     be8:	bf5d                	j	b9e <USART_DeInit+0x3a>
     bea:	400027b7          	lui	a5,0x40002
     bee:	80078713          	addi	a4,a5,-2048 # 40001800 <_eusrstack+0x1fff1800>
     bf2:	00e51a63          	bne	a0,a4,c06 <USART_DeInit+0xa2>
     bf6:	4585                	li	a1,1
     bf8:	04000513          	li	a0,64
     bfc:	3539                	jal	a0a <RCC_APB1PeriphResetCmd>
     bfe:	4581                	li	a1,0
     c00:	04000513          	li	a0,64
     c04:	bf69                	j	b9e <USART_DeInit+0x3a>
     c06:	c0078713          	addi	a4,a5,-1024
     c0a:	00e51a63          	bne	a0,a4,c1e <USART_DeInit+0xba>
     c0e:	4585                	li	a1,1
     c10:	08000513          	li	a0,128
     c14:	3bdd                	jal	a0a <RCC_APB1PeriphResetCmd>
     c16:	4581                	li	a1,0
     c18:	08000513          	li	a0,128
     c1c:	b749                	j	b9e <USART_DeInit+0x3a>
     c1e:	f6f511e3          	bne	a0,a5,b80 <USART_DeInit+0x1c>
     c22:	4585                	li	a1,1
     c24:	10000513          	li	a0,256
     c28:	33cd                	jal	a0a <RCC_APB1PeriphResetCmd>
     c2a:	4581                	li	a1,0
     c2c:	10000513          	li	a0,256
     c30:	b7bd                	j	b9e <USART_DeInit+0x3a>

00000c32 <USART_Init>:
     c32:	dbeff2ef          	jal	t0,1f0 <__riscv_save_0>
     c36:	2916                	lhu	a3,16(a0)
     c38:	77f5                	lui	a5,0xffffd
     c3a:	17fd                	addi	a5,a5,-1
     c3c:	8ff5                	and	a5,a5,a3
     c3e:	21f6                	lhu	a3,6(a1)
     c40:	25da                	lhu	a4,12(a1)
     c42:	7179                	addi	sp,sp,-48
     c44:	8fd5                	or	a5,a5,a3
     c46:	a91e                	sh	a5,16(a0)
     c48:	2556                	lhu	a3,12(a0)
     c4a:	77fd                	lui	a5,0xfffff
     c4c:	9f378793          	addi	a5,a5,-1549 # ffffe9f3 <_eusrstack+0xdffee9f3>
     c50:	8ff5                	and	a5,a5,a3
     c52:	21d6                	lhu	a3,4(a1)
     c54:	842a                	mv	s0,a0
     c56:	c62e                	sw	a1,12(sp)
     c58:	8fd5                	or	a5,a5,a3
     c5a:	2596                	lhu	a3,8(a1)
     c5c:	8fd5                	or	a5,a5,a3
     c5e:	25b6                	lhu	a3,10(a1)
     c60:	8fd5                	or	a5,a5,a3
     c62:	a55e                	sh	a5,12(a0)
     c64:	295e                	lhu	a5,20(a0)
     c66:	07c2                	slli	a5,a5,0x10
     c68:	83c1                	srli	a5,a5,0x10
     c6a:	cff7f793          	andi	a5,a5,-769
     c6e:	8fd9                	or	a5,a5,a4
     c70:	a95e                	sh	a5,20(a0)
     c72:	0868                	addi	a0,sp,28
     c74:	36d9                	jal	83a <RCC_GetClocksFreq>
     c76:	400147b7          	lui	a5,0x40014
     c7a:	80078793          	addi	a5,a5,-2048 # 40013800 <_eusrstack+0x20003800>
     c7e:	45b2                	lw	a1,12(sp)
     c80:	02f41e63          	bne	s0,a5,cbc <USART_Init+0x8a>
     c84:	57a2                	lw	a5,40(sp)
     c86:	4765                	li	a4,25
     c88:	02e787b3          	mul	a5,a5,a4
     c8c:	4198                	lw	a4,0(a1)
     c8e:	06400693          	li	a3,100
     c92:	070a                	slli	a4,a4,0x2
     c94:	02e7d7b3          	divu	a5,a5,a4
     c98:	02d7d733          	divu	a4,a5,a3
     c9c:	02d7f7b3          	remu	a5,a5,a3
     ca0:	0712                	slli	a4,a4,0x4
     ca2:	0792                	slli	a5,a5,0x4
     ca4:	03278793          	addi	a5,a5,50
     ca8:	02d7d7b3          	divu	a5,a5,a3
     cac:	8bbd                	andi	a5,a5,15
     cae:	8fd9                	or	a5,a5,a4
     cb0:	07c2                	slli	a5,a5,0x10
     cb2:	83c1                	srli	a5,a5,0x10
     cb4:	a41e                	sh	a5,8(s0)
     cb6:	6145                	addi	sp,sp,48
     cb8:	d5cff06f          	j	214 <__riscv_restore_0>
     cbc:	5792                	lw	a5,36(sp)
     cbe:	b7e1                	j	c86 <USART_Init+0x54>

00000cc0 <USART_StructInit>:
     cc0:	6789                	lui	a5,0x2
     cc2:	58078793          	addi	a5,a5,1408 # 2580 <__sflush_r+0xfc>
     cc6:	c11c                	sw	a5,0(a0)
     cc8:	000c07b7          	lui	a5,0xc0
     ccc:	00052223          	sw	zero,4(a0) # 100004 <_data_lma+0xfca40>
     cd0:	c51c                	sw	a5,8(a0)
     cd2:	00051623          	sh	zero,12(a0)
     cd6:	8082                	ret

00000cd8 <USART_Cmd>:
     cd8:	c591                	beqz	a1,ce4 <USART_Cmd+0xc>
     cda:	255e                	lhu	a5,12(a0)
     cdc:	6709                	lui	a4,0x2
     cde:	8fd9                	or	a5,a5,a4
     ce0:	a55e                	sh	a5,12(a0)
     ce2:	8082                	ret
     ce4:	255a                	lhu	a4,12(a0)
     ce6:	77f9                	lui	a5,0xffffe
     ce8:	17fd                	addi	a5,a5,-1
     cea:	8ff9                	and	a5,a5,a4
     cec:	bfd5                	j	ce0 <USART_Cmd+0x8>

00000cee <USART_ITConfig>:
     cee:	0ff5f713          	andi	a4,a1,255
     cf2:	4785                	li	a5,1
     cf4:	8315                	srli	a4,a4,0x5
     cf6:	00b795b3          	sll	a1,a5,a1
     cfa:	00f71963          	bne	a4,a5,d0c <USART_ITConfig+0x1e>
     cfe:	00c50793          	addi	a5,a0,12
     d02:	4398                	lw	a4,0(a5)
     d04:	ce01                	beqz	a2,d1c <USART_ITConfig+0x2e>
     d06:	8dd9                	or	a1,a1,a4
     d08:	c38c                	sw	a1,0(a5)
     d0a:	8082                	ret
     d0c:	4689                	li	a3,2
     d0e:	01450793          	addi	a5,a0,20
     d12:	fed718e3          	bne	a4,a3,d02 <USART_ITConfig+0x14>
     d16:	01050793          	addi	a5,a0,16
     d1a:	b7e5                	j	d02 <USART_ITConfig+0x14>
     d1c:	fff5c593          	not	a1,a1
     d20:	8df9                	and	a1,a1,a4
     d22:	b7dd                	j	d08 <USART_ITConfig+0x1a>

00000d24 <USART_SendData>:
     d24:	1ff5f593          	andi	a1,a1,511
     d28:	a14e                	sh	a1,4(a0)
     d2a:	8082                	ret

00000d2c <USART_ReceiveData>:
     d2c:	214a                	lhu	a0,4(a0)
     d2e:	1ff57513          	andi	a0,a0,511
     d32:	8082                	ret

00000d34 <USART_GetFlagStatus>:
     d34:	210a                	lhu	a0,0(a0)
     d36:	8d6d                	and	a0,a0,a1
     d38:	00a03533          	snez	a0,a0
     d3c:	8082                	ret

00000d3e <USART_GetITStatus>:
     d3e:	0ff5f713          	andi	a4,a1,255
     d42:	4685                	li	a3,1
     d44:	8315                	srli	a4,a4,0x5
     d46:	00b697b3          	sll	a5,a3,a1
     d4a:	02d71163          	bne	a4,a3,d6c <USART_GetITStatus+0x2e>
     d4e:	255a                	lhu	a4,12(a0)
     d50:	8ff9                	and	a5,a5,a4
     d52:	211a                	lhu	a4,0(a0)
     d54:	4501                	li	a0,0
     d56:	0742                	slli	a4,a4,0x10
     d58:	8341                	srli	a4,a4,0x10
     d5a:	cb81                	beqz	a5,d6a <USART_GetITStatus+0x2c>
     d5c:	4505                	li	a0,1
     d5e:	81a1                	srli	a1,a1,0x8
     d60:	00b515b3          	sll	a1,a0,a1
     d64:	8f6d                	and	a4,a4,a1
     d66:	00e03533          	snez	a0,a4
     d6a:	8082                	ret
     d6c:	4689                	li	a3,2
     d6e:	00d71463          	bne	a4,a3,d76 <USART_GetITStatus+0x38>
     d72:	291a                	lhu	a4,16(a0)
     d74:	bff1                	j	d50 <USART_GetITStatus+0x12>
     d76:	295a                	lhu	a4,20(a0)
     d78:	bfe1                	j	d50 <USART_GetITStatus+0x12>

00000d7a <TIM6_IRQHandler>:
     d7a:	4585                	li	a1,1
     d7c:	40001537          	lui	a0,0x40001
     d80:	33c1                	jal	b40 <TIM_GetITStatus>
     d82:	4785                	li	a5,1
     d84:	00f51763          	bne	a0,a5,d92 <TIM6_IRQHandler+0x18>
     d88:	82418793          	addi	a5,gp,-2012 # 200000b4 <uwtick>
     d8c:	4398                	lw	a4,0(a5)
     d8e:	0705                	addi	a4,a4,1
     d90:	c398                	sw	a4,0(a5)
     d92:	4585                	li	a1,1
     d94:	40001537          	lui	a0,0x40001
     d98:	33c1                	jal	b58 <TIM_ClearITPendingBit>
     d9a:	30200073          	mret

00000d9e <mytim6_init>:
     d9e:	c52ff2ef          	jal	t0,1f0 <__riscv_save_0>
     da2:	1101                	addi	sp,sp,-32
     da4:	4585                	li	a1,1
     da6:	4541                	li	a0,16
     da8:	c602                	sw	zero,12(sp)
     daa:	c802                	sw	zero,16(sp)
     dac:	ca02                	sw	zero,20(sp)
     dae:	cc02                	sw	zero,24(sp)
     db0:	00011e23          	sh	zero,28(sp)
     db4:	3929                	jal	9ce <RCC_APB1PeriphClockCmd>
     db6:	200007b7          	lui	a5,0x20000
     dba:	0907a783          	lw	a5,144(a5) # 20000090 <SystemCoreClock>
     dbe:	000f4737          	lui	a4,0xf4
     dc2:	24070713          	addi	a4,a4,576 # f4240 <_data_lma+0xf0c7c>
     dc6:	02e7d7b3          	divu	a5,a5,a4
     dca:	084c                	addi	a1,sp,20
     dcc:	40001537          	lui	a0,0x40001
     dd0:	00011b23          	sh	zero,22(sp)
     dd4:	17fd                	addi	a5,a5,-1
     dd6:	82fc                	sh	a5,20(sp)
     dd8:	3e700793          	li	a5,999
     ddc:	cc3e                	sw	a5,24(sp)
     dde:	31a9                	jal	a28 <TIM_TimeBaseInit>
     de0:	4585                	li	a1,1
     de2:	40001537          	lui	a0,0x40001
     de6:	3b8d                	jal	b58 <TIM_ClearITPendingBit>
     de8:	04600793          	li	a5,70
     dec:	867c                	sh	a5,12(sp)
     dee:	4785                	li	a5,1
     df0:	875c                	sb	a5,14(sp)
     df2:	0068                	addi	a0,sp,12
     df4:	4785                	li	a5,1
     df6:	c83e                	sw	a5,16(sp)
     df8:	3a51                	jal	78c <NVIC_Init>
     dfa:	4605                	li	a2,1
     dfc:	4585                	li	a1,1
     dfe:	40001537          	lui	a0,0x40001
     e02:	3335                	jal	b2e <TIM_ITConfig>
     e04:	4585                	li	a1,1
     e06:	40001537          	lui	a0,0x40001
     e0a:	3331                	jal	b16 <TIM_Cmd>
     e0c:	6105                	addi	sp,sp,32
     e0e:	c06ff06f          	j	214 <__riscv_restore_0>

00000e12 <get_uwtick>:
     e12:	8241a503          	lw	a0,-2012(gp) # 200000b4 <uwtick>
     e16:	8082                	ret

00000e18 <myuart2_init>:
     e18:	bd8ff2ef          	jal	t0,1f0 <__riscv_save_0>
     e1c:	7179                	addi	sp,sp,-48
     e1e:	4585                	li	a1,1
     e20:	4511                	li	a0,4
     e22:	ca02                	sw	zero,20(sp)
     e24:	cc02                	sw	zero,24(sp)
     e26:	ce02                	sw	zero,28(sp)
     e28:	d002                	sw	zero,32(sp)
     e2a:	d202                	sw	zero,36(sp)
     e2c:	d402                	sw	zero,40(sp)
     e2e:	d602                	sw	zero,44(sp)
     e30:	c602                	sw	zero,12(sp)
     e32:	c802                	sw	zero,16(sp)
     e34:	3eb5                	jal	9b0 <RCC_APB2PeriphClockCmd>
     e36:	4585                	li	a1,1
     e38:	00020537          	lui	a0,0x20
     e3c:	3e49                	jal	9ce <RCC_APB1PeriphClockCmd>
     e3e:	4791                	li	a5,4
     e40:	82fc                	sh	a5,20(sp)
     e42:	40011437          	lui	s0,0x40011
     e46:	478d                	li	a5,3
     e48:	cc3e                	sw	a5,24(sp)
     e4a:	084c                	addi	a1,sp,20
     e4c:	47e1                	li	a5,24
     e4e:	80040513          	addi	a0,s0,-2048 # 40010800 <_eusrstack+0x20000800>
     e52:	ce3e                	sw	a5,28(sp)
     e54:	873ff0ef          	jal	ra,6c6 <GPIO_Init>
     e58:	47a1                	li	a5,8
     e5a:	084c                	addi	a1,sp,20
     e5c:	82fc                	sh	a5,20(sp)
     e5e:	80040513          	addi	a0,s0,-2048
     e62:	4791                	li	a5,4
     e64:	40004437          	lui	s0,0x40004
     e68:	ce3e                	sw	a5,28(sp)
     e6a:	85dff0ef          	jal	ra,6c6 <GPIO_Init>
     e6e:	40040513          	addi	a0,s0,1024 # 40004400 <_eusrstack+0x1fff4400>
     e72:	39cd                	jal	b64 <USART_DeInit>
     e74:	1008                	addi	a0,sp,32
     e76:	35a9                	jal	cc0 <USART_StructInit>
     e78:	67f1                	lui	a5,0x1c
     e7a:	20078793          	addi	a5,a5,512 # 1c200 <_data_lma+0x18c3c>
     e7e:	d03e                	sw	a5,32(sp)
     e80:	100c                	addi	a1,sp,32
     e82:	000c07b7          	lui	a5,0xc0
     e86:	40040513          	addi	a0,s0,1024
     e8a:	d43e                	sw	a5,40(sp)
     e8c:	d202                	sw	zero,36(sp)
     e8e:	02011623          	sh	zero,44(sp)
     e92:	3345                	jal	c32 <USART_Init>
     e94:	4605                	li	a2,1
     e96:	40040513          	addi	a0,s0,1024
     e9a:	52500593          	li	a1,1317
     e9e:	3d81                	jal	cee <USART_ITConfig>
     ea0:	4585                	li	a1,1
     ea2:	40040513          	addi	a0,s0,1024
     ea6:	3d0d                	jal	cd8 <USART_Cmd>
     ea8:	13600793          	li	a5,310
     eac:	867c                	sh	a5,12(sp)
     eae:	0068                	addi	a0,sp,12
     eb0:	4785                	li	a5,1
     eb2:	c83e                	sw	a5,16(sp)
     eb4:	00010723          	sb	zero,14(sp)
     eb8:	8d5ff0ef          	jal	ra,78c <NVIC_Init>
     ebc:	40000613          	li	a2,1024
     ec0:	83c18593          	addi	a1,gp,-1988 # 200000cc <uart2_buffer>
     ec4:	c3c18513          	addi	a0,gp,-964 # 200004cc <uart2_ringbuffer>
     ec8:	18d000ef          	jal	ra,1854 <rt_ringbuffer_init>
     ecc:	6145                	addi	sp,sp,48
     ece:	b46ff06f          	j	214 <__riscv_restore_0>

00000ed2 <USART2_IRQHandler>:
     ed2:	1101                	addi	sp,sp,-32
     ed4:	ce22                	sw	s0,28(sp)
     ed6:	40004437          	lui	s0,0x40004
     eda:	52500593          	li	a1,1317
     ede:	40040513          	addi	a0,s0,1024 # 40004400 <_eusrstack+0x1fff4400>
     ee2:	3db1                	jal	d3e <USART_GetITStatus>
     ee4:	cd19                	beqz	a0,f02 <USART2_IRQHandler+0x30>
     ee6:	40040513          	addi	a0,s0,1024
     eea:	3589                	jal	d2c <USART_ReceiveData>
     eec:	87c8                	sb	a0,15(sp)
     eee:	3715                	jal	e12 <get_uwtick>
     ef0:	82a1a423          	sw	a0,-2008(gp) # 200000b8 <uart2_tick>
     ef4:	4605                	li	a2,1
     ef6:	00f10593          	addi	a1,sp,15
     efa:	c3c18513          	addi	a0,gp,-964 # 200004cc <uart2_ringbuffer>
     efe:	1db000ef          	jal	ra,18d8 <rt_ringbuffer_put>
     f02:	4472                	lw	s0,28(sp)
     f04:	6105                	addi	sp,sp,32
     f06:	30200073          	mret

00000f0a <uart_printf>:
     f0a:	dc010113          	addi	sp,sp,-576
     f0e:	21212823          	sw	s2,528(sp)
     f12:	22c12423          	sw	a2,552(sp)
     f16:	22d12623          	sw	a3,556(sp)
     f1a:	862e                	mv	a2,a1
     f1c:	1434                	addi	a3,sp,552
     f1e:	892a                	mv	s2,a0
     f20:	20000593          	li	a1,512
     f24:	0808                	addi	a0,sp,16
     f26:	20812c23          	sw	s0,536(sp)
     f2a:	20112e23          	sw	ra,540(sp)
     f2e:	20912a23          	sw	s1,532(sp)
     f32:	22e12823          	sw	a4,560(sp)
     f36:	22f12a23          	sw	a5,564(sp)
     f3a:	23012c23          	sw	a6,568(sp)
     f3e:	23112e23          	sw	a7,572(sp)
     f42:	c636                	sw	a3,12(sp)
     f44:	368010ef          	jal	ra,22ac <vsniprintf>
     f48:	547d                	li	s0,-1
     f4a:	00054663          	bltz	a0,f56 <uart_printf+0x4c>
     f4e:	842a                	mv	s0,a0
     f50:	4481                	li	s1,0
     f52:	00849e63          	bne	s1,s0,f6e <uart_printf+0x64>
     f56:	8522                	mv	a0,s0
     f58:	21c12083          	lw	ra,540(sp)
     f5c:	21812403          	lw	s0,536(sp)
     f60:	21412483          	lw	s1,532(sp)
     f64:	21012903          	lw	s2,528(sp)
     f68:	24010113          	addi	sp,sp,576
     f6c:	8082                	ret
     f6e:	00095783          	lhu	a5,0(s2)
     f72:	0807f793          	andi	a5,a5,128
     f76:	dfe5                	beqz	a5,f6e <uart_printf+0x64>
     f78:	081c                	addi	a5,sp,16
     f7a:	97a6                	add	a5,a5,s1
     f7c:	00078583          	lb	a1,0(a5) # c0000 <_data_lma+0xbca3c>
     f80:	854a                	mv	a0,s2
     f82:	0485                	addi	s1,s1,1
     f84:	05c2                	slli	a1,a1,0x10
     f86:	81c1                	srli	a1,a1,0x10
     f88:	3b71                	jal	d24 <USART_SendData>
     f8a:	b7e1                	j	f52 <uart_printf+0x48>

00000f8c <scheduler_init>:
     f8c:	a64ff2ef          	jal	t0,1f0 <__riscv_save_0>
     f90:	4705                	li	a4,1
     f92:	82e18623          	sb	a4,-2004(gp) # 200000bc <task_num>
     f96:	3521                	jal	d9e <mytim6_init>
     f98:	3541                	jal	e18 <myuart2_init>
     f9a:	08800793          	li	a5,136
     f9e:	8007a073          	csrs	0x800,a5
     fa2:	2905                	jal	13d2 <easy_bootloader_init>
     fa4:	a70ff06f          	j	214 <__riscv_restore_0>

00000fa8 <scheduler_run>:
     fa8:	a2eff2ef          	jal	t0,1d6 <__riscv_save_4>
     fac:	200004b7          	lui	s1,0x20000
     fb0:	4401                	li	s0,0
     fb2:	02048493          	addi	s1,s1,32 # 20000020 <scheduler_task>
     fb6:	49b1                	li	s3,12
     fb8:	82c1c783          	lbu	a5,-2004(gp) # 200000bc <task_num>
     fbc:	00f46463          	bltu	s0,a5,fc4 <scheduler_run+0x1c>
     fc0:	a4aff06f          	j	20a <__riscv_restore_4>
     fc4:	35b9                	jal	e12 <get_uwtick>
     fc6:	033407b3          	mul	a5,s0,s3
     fca:	97a6                	add	a5,a5,s1
     fcc:	43d8                	lw	a4,4(a5)
     fce:	4794                	lw	a3,8(a5)
     fd0:	9736                	add	a4,a4,a3
     fd2:	00e56563          	bltu	a0,a4,fdc <scheduler_run+0x34>
     fd6:	c788                	sw	a0,8(a5)
     fd8:	439c                	lw	a5,0(a5)
     fda:	9782                	jalr	a5
     fdc:	0405                	addi	s0,s0,1
     fde:	0ff47413          	andi	s0,s0,255
     fe2:	bfd9                	j	fb8 <scheduler_run+0x10>

00000fe4 <Delay_Init>:
     fe4:	200007b7          	lui	a5,0x20000
     fe8:	0907a783          	lw	a5,144(a5) # 20000090 <SystemCoreClock>
     fec:	007a1737          	lui	a4,0x7a1
     ff0:	20070713          	addi	a4,a4,512 # 7a1200 <_data_lma+0x79dc3c>
     ff4:	02e7d7b3          	divu	a5,a5,a4
     ff8:	0ff7f793          	andi	a5,a5,255
     ffc:	82f18823          	sb	a5,-2000(gp) # 200000c0 <p_us>
    1000:	3e800713          	li	a4,1000
    1004:	02e787b3          	mul	a5,a5,a4
    1008:	82f19723          	sh	a5,-2002(gp) # 200000be <p_ms>
    100c:	8082                	ret

0000100e <Delay_Ms>:
    100e:	e000f7b7          	lui	a5,0xe000f
    1012:	43d8                	lw	a4,4(a5)
    1014:	4681                	li	a3,0
    1016:	9b79                	andi	a4,a4,-2
    1018:	c3d8                	sw	a4,4(a5)
    101a:	82e1d703          	lhu	a4,-2002(gp) # 200000be <p_ms>
    101e:	02a70633          	mul	a2,a4,a0
    1022:	cb90                	sw	a2,16(a5)
    1024:	cbd4                	sw	a3,20(a5)
    1026:	4398                	lw	a4,0(a5)
    1028:	01076713          	ori	a4,a4,16
    102c:	c398                	sw	a4,0(a5)
    102e:	4398                	lw	a4,0(a5)
    1030:	02176713          	ori	a4,a4,33
    1034:	c398                	sw	a4,0(a5)
    1036:	43d8                	lw	a4,4(a5)
    1038:	8b05                	andi	a4,a4,1
    103a:	df75                	beqz	a4,1036 <Delay_Ms+0x28>
    103c:	4398                	lw	a4,0(a5)
    103e:	9b79                	andi	a4,a4,-2
    1040:	c398                	sw	a4,0(a5)
    1042:	8082                	ret

00001044 <USART_Printf_Init>:
    1044:	9acff2ef          	jal	t0,1f0 <__riscv_save_0>
    1048:	842a                	mv	s0,a0
    104a:	6511                	lui	a0,0x4
    104c:	1101                	addi	sp,sp,-32
    104e:	4585                	li	a1,1
    1050:	0511                	addi	a0,a0,4
    1052:	95fff0ef          	jal	ra,9b0 <RCC_APB2PeriphClockCmd>
    1056:	20000793          	li	a5,512
    105a:	827c                	sh	a5,4(sp)
    105c:	40011537          	lui	a0,0x40011
    1060:	478d                	li	a5,3
    1062:	c43e                	sw	a5,8(sp)
    1064:	004c                	addi	a1,sp,4
    1066:	47e1                	li	a5,24
    1068:	80050513          	addi	a0,a0,-2048 # 40010800 <_eusrstack+0x20000800>
    106c:	c63e                	sw	a5,12(sp)
    106e:	e58ff0ef          	jal	ra,6c6 <GPIO_Init>
    1072:	c822                	sw	s0,16(sp)
    1074:	40014437          	lui	s0,0x40014
    1078:	000807b7          	lui	a5,0x80
    107c:	080c                	addi	a1,sp,16
    107e:	80040513          	addi	a0,s0,-2048 # 40013800 <_eusrstack+0x20003800>
    1082:	cc3e                	sw	a5,24(sp)
    1084:	ca02                	sw	zero,20(sp)
    1086:	00011e23          	sh	zero,28(sp)
    108a:	3665                	jal	c32 <USART_Init>
    108c:	4585                	li	a1,1
    108e:	80040513          	addi	a0,s0,-2048
    1092:	3199                	jal	cd8 <USART_Cmd>
    1094:	6105                	addi	sp,sp,32
    1096:	97eff06f          	j	214 <__riscv_restore_0>

0000109a <_write>:
    109a:	93cff2ef          	jal	t0,1d6 <__riscv_save_4>
    109e:	400144b7          	lui	s1,0x40014
    10a2:	89ae                	mv	s3,a1
    10a4:	8932                	mv	s2,a2
    10a6:	4401                	li	s0,0
    10a8:	80048493          	addi	s1,s1,-2048 # 40013800 <_eusrstack+0x20003800>
    10ac:	01244563          	blt	s0,s2,10b6 <_write+0x1c>
    10b0:	854a                	mv	a0,s2
    10b2:	958ff06f          	j	20a <__riscv_restore_4>
    10b6:	04000593          	li	a1,64
    10ba:	8526                	mv	a0,s1
    10bc:	39a5                	jal	d34 <USART_GetFlagStatus>
    10be:	dd65                	beqz	a0,10b6 <_write+0x1c>
    10c0:	008987b3          	add	a5,s3,s0
    10c4:	00078583          	lb	a1,0(a5) # 80000 <_data_lma+0x7ca3c>
    10c8:	8526                	mv	a0,s1
    10ca:	0405                	addi	s0,s0,1
    10cc:	05c2                	slli	a1,a1,0x10
    10ce:	81c1                	srli	a1,a1,0x10
    10d0:	3991                	jal	d24 <USART_SendData>
    10d2:	bfe9                	j	10ac <_write+0x12>

000010d4 <_sbrk>:
    10d4:	80818713          	addi	a4,gp,-2040 # 20000098 <curbrk.5273>
    10d8:	431c                	lw	a5,0(a4)
    10da:	46018693          	addi	a3,gp,1120 # 20000cf0 <_ebss>
    10de:	953e                	add	a0,a0,a5
    10e0:	00d56b63          	bltu	a0,a3,10f6 <_sbrk+0x22>
    10e4:	200106b7          	lui	a3,0x20010
    10e8:	80068693          	addi	a3,a3,-2048 # 2000f800 <_heap_end>
    10ec:	00a6e563          	bltu	a3,a0,10f6 <_sbrk+0x22>
    10f0:	c308                	sw	a0,0(a4)
    10f2:	853e                	mv	a0,a5
    10f4:	8082                	ret
    10f6:	57fd                	li	a5,-1
    10f8:	bfed                	j	10f2 <_sbrk+0x1e>

000010fa <boot_port_flash_erase>:
    10fa:	00b567b3          	or	a5,a0,a1
    10fe:	0ff7f793          	andi	a5,a5,255
    1102:	eba5                	bnez	a5,1172 <boot_port_flash_erase+0x78>
    1104:	8d2ff2ef          	jal	t0,1d6 <__riscv_save_4>
    1108:	08000437          	lui	s0,0x8000
    110c:	942a                	add	s0,s0,a0
    110e:	008584b3          	add	s1,a1,s0
    1112:	ca4ff0ef          	jal	ra,5b6 <FLASH_Unlock>
    1116:	03100513          	li	a0,49
    111a:	6921                	lui	s2,0x8
    111c:	cc2ff0ef          	jal	ra,5de <FLASH_ClearFlag>
    1120:	197d                	addi	s2,s2,-1
    1122:	00947563          	bgeu	s0,s1,112c <boot_port_flash_erase+0x32>
    1126:	012477b3          	and	a5,s0,s2
    112a:	e781                	bnez	a5,1132 <boot_port_flash_erase+0x38>
    112c:	8922                	mv	s2,s0
    112e:	69a1                	lui	s3,0x8
    1130:	a819                	j	1146 <boot_port_flash_erase+0x4c>
    1132:	8522                	mv	a0,s0
    1134:	d34ff0ef          	jal	ra,668 <FLASH_ErasePage_Fast>
    1138:	10040413          	addi	s0,s0,256 # 8000100 <_data_lma+0x7ffcb3c>
    113c:	b7dd                	j	1122 <boot_port_flash_erase+0x28>
    113e:	854a                	mv	a0,s2
    1140:	d56ff0ef          	jal	ra,696 <FLASH_EraseBlock_32K_Fast>
    1144:	994e                	add	s2,s2,s3
    1146:	412487b3          	sub	a5,s1,s2
    114a:	ff37fae3          	bgeu	a5,s3,113e <boot_port_flash_erase+0x44>
    114e:	40848533          	sub	a0,s1,s0
    1152:	77e1                	lui	a5,0xffff8
    1154:	8d7d                	and	a0,a0,a5
    1156:	942a                	add	s0,s0,a0
    1158:	00946763          	bltu	s0,s1,1166 <boot_port_flash_erase+0x6c>
    115c:	c74ff0ef          	jal	ra,5d0 <FLASH_Lock>
    1160:	4501                	li	a0,0
    1162:	8a8ff06f          	j	20a <__riscv_restore_4>
    1166:	8522                	mv	a0,s0
    1168:	d00ff0ef          	jal	ra,668 <FLASH_ErasePage_Fast>
    116c:	10040413          	addi	s0,s0,256
    1170:	b7e5                	j	1158 <boot_port_flash_erase+0x5e>
    1172:	557d                	li	a0,-1
    1174:	8082                	ret

00001176 <boot_port_flash_write>:
    1176:	00c567b3          	or	a5,a0,a2
    117a:	8b8d                	andi	a5,a5,3
    117c:	e3a5                	bnez	a5,11dc <boot_port_flash_write+0x66>
    117e:	858ff2ef          	jal	t0,1d6 <__riscv_save_4>
    1182:	842a                	mv	s0,a0
    1184:	84ae                	mv	s1,a1
    1186:	557d                	li	a0,-1
    1188:	c5a9                	beqz	a1,11d2 <boot_port_flash_write+0x5c>
    118a:	08000537          	lui	a0,0x8000
    118e:	8932                	mv	s2,a2
    1190:	942a                	add	s0,s0,a0
    1192:	c24ff0ef          	jal	ra,5b6 <FLASH_Unlock>
    1196:	03100513          	li	a0,49
    119a:	c44ff0ef          	jal	ra,5de <FLASH_ClearFlag>
    119e:	9922                	add	s2,s2,s0
    11a0:	4991                	li	s3,4
    11a2:	01246663          	bltu	s0,s2,11ae <boot_port_flash_write+0x38>
    11a6:	c2aff0ef          	jal	ra,5d0 <FLASH_Lock>
    11aa:	4501                	li	a0,0
    11ac:	a01d                	j	11d2 <boot_port_flash_write+0x5c>
    11ae:	308c                	lbu	a1,1(s1)
    11b0:	209c                	lbu	a5,0(s1)
    11b2:	8522                	mv	a0,s0
    11b4:	05a2                	slli	a1,a1,0x8
    11b6:	8ddd                	or	a1,a1,a5
    11b8:	20bc                	lbu	a5,2(s1)
    11ba:	07c2                	slli	a5,a5,0x10
    11bc:	8fcd                	or	a5,a5,a1
    11be:	30ac                	lbu	a1,3(s1)
    11c0:	05e2                	slli	a1,a1,0x18
    11c2:	8ddd                	or	a1,a1,a5
    11c4:	c58ff0ef          	jal	ra,61c <FLASH_ProgramWord>
    11c8:	01350763          	beq	a0,s3,11d6 <boot_port_flash_write+0x60>
    11cc:	c04ff0ef          	jal	ra,5d0 <FLASH_Lock>
    11d0:	557d                	li	a0,-1
    11d2:	838ff06f          	j	20a <__riscv_restore_4>
    11d6:	0411                	addi	s0,s0,4
    11d8:	0491                	addi	s1,s1,4
    11da:	b7e1                	j	11a2 <boot_port_flash_write+0x2c>
    11dc:	557d                	li	a0,-1
    11de:	8082                	ret

000011e0 <boot_port_flash_read>:
    11e0:	810ff2ef          	jal	t0,1f0 <__riscv_save_0>
    11e4:	87ae                	mv	a5,a1
    11e6:	080005b7          	lui	a1,0x8000
    11ea:	95aa                	add	a1,a1,a0
    11ec:	853e                	mv	a0,a5
    11ee:	0cd000ef          	jal	ra,1aba <memcpy>
    11f2:	4501                	li	a0,0
    11f4:	820ff06f          	j	214 <__riscv_restore_0>

000011f8 <boot_port_uart_write>:
    11f8:	c521                	beqz	a0,1240 <boot_port_uart_write+0x48>
    11fa:	ff7fe2ef          	jal	t0,1f0 <__riscv_save_0>
    11fe:	842a                	mv	s0,a0
    1200:	557d                	li	a0,-1
    1202:	c19d                	beqz	a1,1228 <boot_port_uart_write+0x30>
    1204:	40004937          	lui	s2,0x40004
    1208:	00b404b3          	add	s1,s0,a1
    120c:	40090913          	addi	s2,s2,1024 # 40004400 <_eusrstack+0x1fff4400>
    1210:	00941e63          	bne	s0,s1,122c <boot_port_uart_write+0x34>
    1214:	40004437          	lui	s0,0x40004
    1218:	40040413          	addi	s0,s0,1024 # 40004400 <_eusrstack+0x1fff4400>
    121c:	04000593          	li	a1,64
    1220:	8522                	mv	a0,s0
    1222:	3e09                	jal	d34 <USART_GetFlagStatus>
    1224:	dd65                	beqz	a0,121c <boot_port_uart_write+0x24>
    1226:	4501                	li	a0,0
    1228:	fedfe06f          	j	214 <__riscv_restore_0>
    122c:	08000593          	li	a1,128
    1230:	854a                	mv	a0,s2
    1232:	3609                	jal	d34 <USART_GetFlagStatus>
    1234:	dd65                	beqz	a0,122c <boot_port_uart_write+0x34>
    1236:	200c                	lbu	a1,0(s0)
    1238:	854a                	mv	a0,s2
    123a:	0405                	addi	s0,s0,1
    123c:	34e5                	jal	d24 <USART_SendData>
    123e:	bfc9                	j	1210 <boot_port_uart_write+0x18>
    1240:	557d                	li	a0,-1
    1242:	8082                	ret

00001244 <boot_port_uart_read>:
    1244:	e119                	bnez	a0,124a <boot_port_uart_read+0x6>
    1246:	4501                	li	a0,0
    1248:	8082                	ret
    124a:	ddf5                	beqz	a1,1246 <boot_port_uart_read+0x2>
    124c:	fa5fe2ef          	jal	t0,1f0 <__riscv_save_0>
    1250:	1141                	addi	sp,sp,-16
    1252:	c62a                	sw	a0,12(sp)
    1254:	c3c18513          	addi	a0,gp,-964 # 200004cc <uart2_ringbuffer>
    1258:	842e                	mv	s0,a1
    125a:	2589                	jal	189c <rt_ringbuffer_data_len>
    125c:	01051613          	slli	a2,a0,0x10
    1260:	8241                	srli	a2,a2,0x10
    1262:	4501                	li	a0,0
    1264:	ce09                	beqz	a2,127e <boot_port_uart_read+0x3a>
    1266:	45b2                	lw	a1,12(sp)
    1268:	00c47563          	bgeu	s0,a2,1272 <boot_port_uart_read+0x2e>
    126c:	01041613          	slli	a2,s0,0x10
    1270:	8241                	srli	a2,a2,0x10
    1272:	c3c18513          	addi	a0,gp,-964 # 200004cc <uart2_ringbuffer>
    1276:	718000ef          	jal	ra,198e <rt_ringbuffer_get>
    127a:	0542                	slli	a0,a0,0x10
    127c:	8141                	srli	a0,a0,0x10
    127e:	0141                	addi	sp,sp,16
    1280:	f95fe06f          	j	214 <__riscv_restore_0>

00001284 <boot_port_log>:
    1284:	7129                	addi	sp,sp,-320
    1286:	12b12223          	sw	a1,292(sp)
    128a:	12c12423          	sw	a2,296(sp)
    128e:	12d12623          	sw	a3,300(sp)
    1292:	862a                	mv	a2,a0
    1294:	1254                	addi	a3,sp,292
    1296:	10000593          	li	a1,256
    129a:	0808                	addi	a0,sp,16
    129c:	10112e23          	sw	ra,284(sp)
    12a0:	12e12823          	sw	a4,304(sp)
    12a4:	12f12a23          	sw	a5,308(sp)
    12a8:	13012c23          	sw	a6,312(sp)
    12ac:	13112e23          	sw	a7,316(sp)
    12b0:	c636                	sw	a3,12(sp)
    12b2:	7fb000ef          	jal	ra,22ac <vsniprintf>
    12b6:	00a05c63          	blez	a0,12ce <boot_port_log+0x4a>
    12ba:	000035b7          	lui	a1,0x3
    12be:	40014537          	lui	a0,0x40014
    12c2:	0810                	addi	a2,sp,16
    12c4:	12458593          	addi	a1,a1,292 # 3124 <_exit+0x4>
    12c8:	80050513          	addi	a0,a0,-2048 # 40013800 <_eusrstack+0x20003800>
    12cc:	393d                	jal	f0a <uart_printf>
    12ce:	11c12083          	lw	ra,284(sp)
    12d2:	6131                	addi	sp,sp,320
    12d4:	8082                	ret

000012d6 <boot_port_jump_to_app>:
    12d6:	f1bfe2ef          	jal	t0,1f0 <__riscv_save_0>
    12da:	08800793          	li	a5,136
    12de:	8007b073          	csrc	0x800,a5
    12e2:	0000100f          	fence.i
    12e6:	4601                	li	a2,0
    12e8:	4585                	li	a1,1
    12ea:	40001537          	lui	a0,0x40001
    12ee:	841ff0ef          	jal	ra,b2e <TIM_ITConfig>
    12f2:	4581                	li	a1,0
    12f4:	40001537          	lui	a0,0x40001
    12f8:	81fff0ef          	jal	ra,b16 <TIM_Cmd>
    12fc:	40004437          	lui	s0,0x40004
    1300:	4601                	li	a2,0
    1302:	40040513          	addi	a0,s0,1024 # 40004400 <_eusrstack+0x1fff4400>
    1306:	52500593          	li	a1,1317
    130a:	9e5ff0ef          	jal	ra,cee <USART_ITConfig>
    130e:	40040513          	addi	a0,s0,1024
    1312:	4581                	li	a1,0
    1314:	9c5ff0ef          	jal	ra,cd8 <USART_Cmd>
    1318:	e000f7b7          	lui	a5,0xe000f
    131c:	0007a023          	sw	zero,0(a5) # e000f000 <_eusrstack+0xbffff000>
    1320:	0007a223          	sw	zero,4(a5)
    1324:	e000e437          	lui	s0,0xe000e
    1328:	4781                	li	a5,0
    132a:	56fd                	li	a3,-1
    132c:	4621                	li	a2,8
    132e:	00279713          	slli	a4,a5,0x2
    1332:	9722                	add	a4,a4,s0
    1334:	18d72023          	sw	a3,384(a4)
    1338:	28d72023          	sw	a3,640(a4)
    133c:	0785                	addi	a5,a5,1
    133e:	fec798e3          	bne	a5,a2,132e <boot_port_jump_to_app+0x58>
    1342:	4581                	li	a1,0
    1344:	4511                	li	a0,4
    1346:	e6aff0ef          	jal	ra,9b0 <RCC_APB2PeriphClockCmd>
    134a:	4581                	li	a1,0
    134c:	4521                	li	a0,8
    134e:	e62ff0ef          	jal	ra,9b0 <RCC_APB2PeriphClockCmd>
    1352:	4581                	li	a1,0
    1354:	00020537          	lui	a0,0x20
    1358:	e76ff0ef          	jal	ra,9ce <RCC_APB1PeriphClockCmd>
    135c:	4581                	li	a1,0
    135e:	4541                	li	a0,16
    1360:	e6eff0ef          	jal	ra,9ce <RCC_APB1PeriphClockCmd>
    1364:	c84ff0ef          	jal	ra,7e8 <RCC_DeInit>
    1368:	4529                	li	a0,10
    136a:	3155                	jal	100e <Delay_Ms>
    136c:	6791                	lui	a5,0x4
    136e:	18f42023          	sw	a5,384(s0) # e000e180 <_eusrstack+0xbfffe180>
    1372:	0000100f          	fence.i
    1376:	28f42023          	sw	a5,640(s0)
    137a:	10f42023          	sw	a5,256(s0)
    137e:	08800713          	li	a4,136
    1382:	80072073          	csrs	0x800,a4
    1386:	20f42023          	sw	a5,512(s0)
    138a:	a001                	j	138a <boot_port_jump_to_app+0xb4>

0000138c <boot_port_system_reset>:
    138c:	beef07b7          	lui	a5,0xbeef0
    1390:	e000e737          	lui	a4,0xe000e
    1394:	08078793          	addi	a5,a5,128 # beef0080 <_eusrstack+0x9eee0080>
    1398:	c73c                	sw	a5,72(a4)
    139a:	8082                	ret

0000139c <bootloader_consume_cache>:
    139c:	e55fe2ef          	jal	t0,1f0 <__riscv_save_0>
    13a0:	200007b7          	lui	a5,0x20000
    13a4:	4d878493          	addi	s1,a5,1240 # 200004d8 <g_boot_ctx>
    13a8:	4004d403          	lhu	s0,1024(s1)
    13ac:	00856663          	bltu	a0,s0,13b8 <bootloader_consume_cache+0x1c>
    13b0:	40049023          	sh	zero,1024(s1)
    13b4:	e61fe06f          	j	214 <__riscv_restore_0>
    13b8:	8c09                	sub	s0,s0,a0
    13ba:	0442                	slli	s0,s0,0x10
    13bc:	8041                	srli	s0,s0,0x10
    13be:	00a485b3          	add	a1,s1,a0
    13c2:	8622                	mv	a2,s0
    13c4:	4d878513          	addi	a0,a5,1240
    13c8:	7a4000ef          	jal	ra,1b6c <memmove>
    13cc:	40849023          	sh	s0,1024(s1)
    13d0:	b7d5                	j	13b4 <bootloader_consume_cache+0x18>

000013d2 <easy_bootloader_init>:
    13d2:	e05fe2ef          	jal	t0,1d6 <__riscv_save_4>
    13d6:	00003537          	lui	a0,0x3
    13da:	12850513          	addi	a0,a0,296 # 3128 <_exit+0x8>
    13de:	355d                	jal	1284 <boot_port_log>
    13e0:	20000537          	lui	a0,0x20000
    13e4:	6405                	lui	s0,0x1
    13e6:	4d850993          	addi	s3,a0,1240 # 200004d8 <g_boot_ctx>
    13ea:	81440613          	addi	a2,s0,-2028 # 814 <__stack_size+0x14>
    13ee:	4581                	li	a1,0
    13f0:	4d850513          	addi	a0,a0,1240
    13f4:	e2dfe0ef          	jal	ra,220 <memset>
    13f8:	00040937          	lui	s2,0x40
    13fc:	4611                	li	a2,4
    13fe:	44c18593          	addi	a1,gp,1100 # 20000cdc <__global_pointer$+0x44c>
    1402:	80090513          	addi	a0,s2,-2048 # 3f800 <_data_lma+0x3c23c>
    1406:	6499                	lui	s1,0x6
    1408:	7e99ac23          	sw	s1,2040(s3) # 87f8 <_data_lma+0x5234>
    140c:	3bd1                	jal	11e0 <boot_port_flash_read>
    140e:	4611                	li	a2,4
    1410:	45018593          	addi	a1,gp,1104 # 20000ce0 <__global_pointer$+0x450>
    1414:	80490513          	addi	a0,s2,-2044
    1418:	33e1                	jal	11e0 <boot_port_flash_read>
    141a:	4611                	li	a2,4
    141c:	45418593          	addi	a1,gp,1108 # 20000ce4 <__global_pointer$+0x454>
    1420:	80890513          	addi	a0,s2,-2040
    1424:	3b75                	jal	11e0 <boot_port_flash_read>
    1426:	944e                	add	s0,s0,s3
    1428:	80c42683          	lw	a3,-2036(s0)
    142c:	80842603          	lw	a2,-2040(s0)
    1430:	80442583          	lw	a1,-2044(s0)
    1434:	00003537          	lui	a0,0x3
    1438:	14850513          	addi	a0,a0,328 # 3148 <_exit+0x28>
    143c:	35a1                	jal	1284 <boot_port_log>
    143e:	80442703          	lw	a4,-2044(s0)
    1442:	20001937          	lui	s2,0x20001
    1446:	4785                	li	a5,1
    1448:	4d890913          	addi	s2,s2,1240 # 200014d8 <_ebss+0x7e8>
    144c:	00f71863          	bne	a4,a5,145c <easy_bootloader_init+0x8a>
    1450:	00003537          	lui	a0,0x3
    1454:	17850513          	addi	a0,a0,376 # 3178 <_exit+0x58>
    1458:	3535                	jal	1284 <boot_port_log>
    145a:	a05d                	j	1500 <easy_bootloader_init+0x12e>
    145c:	00003537          	lui	a0,0x3
    1460:	1a050513          	addi	a0,a0,416 # 31a0 <_exit+0x80>
    1464:	3505                	jal	1284 <boot_port_log>
    1466:	0004a983          	lw	s3,0(s1) # 6000 <_data_lma+0x2a3c>
    146a:	40c0                	lw	s0,4(s1)
    146c:	00003537          	lui	a0,0x3
    1470:	85ce                	mv	a1,s3
    1472:	8622                	mv	a2,s0
    1474:	1bc50513          	addi	a0,a0,444 # 31bc <_exit+0x9c>
    1478:	3531                	jal	1284 <boot_port_log>
    147a:	000397b7          	lui	a5,0x39
    147e:	409404b3          	sub	s1,s0,s1
    1482:	7ff78793          	addi	a5,a5,2047 # 397ff <_data_lma+0x3623b>
    1486:	0097fc63          	bgeu	a5,s1,149e <easy_bootloader_init+0xcc>
    148a:	00003537          	lui	a0,0x3
    148e:	1e050513          	addi	a0,a0,480 # 31e0 <_exit+0xc0>
    1492:	3bcd                	jal	1284 <boot_port_log>
    1494:	00003537          	lui	a0,0x3
    1498:	2f050513          	addi	a0,a0,752 # 32f0 <_exit+0x1d0>
    149c:	bf75                	j	1458 <easy_bootloader_init+0x86>
    149e:	8805                	andi	s0,s0,1
    14a0:	c411                	beqz	s0,14ac <easy_bootloader_init+0xda>
    14a2:	00003537          	lui	a0,0x3
    14a6:	1f850513          	addi	a0,a0,504 # 31f8 <_exit+0xd8>
    14aa:	b7e5                	j	1492 <easy_bootloader_init+0xc0>
    14ac:	e339e7b7          	lui	a5,0xe339e
    14b0:	33978793          	addi	a5,a5,825 # e339e339 <_eusrstack+0xc338e339>
    14b4:	00f99963          	bne	s3,a5,14c6 <easy_bootloader_init+0xf4>
    14b8:	00003537          	lui	a0,0x3
    14bc:	85ce                	mv	a1,s3
    14be:	21450513          	addi	a0,a0,532 # 3214 <_exit+0xf4>
    14c2:	33c9                	jal	1284 <boot_port_log>
    14c4:	bfc1                	j	1494 <easy_bootloader_init+0xc2>
    14c6:	80492583          	lw	a1,-2044(s2)
    14ca:	4709                	li	a4,2
    14cc:	00e59e63          	bne	a1,a4,14e8 <easy_bootloader_init+0x116>
    14d0:	00003537          	lui	a0,0x3
    14d4:	24c50513          	addi	a0,a0,588 # 324c <_exit+0x12c>
    14d8:	3375                	jal	1284 <boot_port_log>
    14da:	6519                	lui	a0,0x6
    14dc:	3bed                	jal	12d6 <boot_port_jump_to_app>
    14de:	00003537          	lui	a0,0x3
    14e2:	26c50513          	addi	a0,a0,620 # 326c <_exit+0x14c>
    14e6:	bf8d                	j	1458 <easy_bootloader_init+0x86>
    14e8:	00f59763          	bne	a1,a5,14f6 <easy_bootloader_init+0x124>
    14ec:	00003537          	lui	a0,0x3
    14f0:	29450513          	addi	a0,a0,660 # 3294 <_exit+0x174>
    14f4:	b795                	j	1458 <easy_bootloader_init+0x86>
    14f6:	00003537          	lui	a0,0x3
    14fa:	2bc50513          	addi	a0,a0,700 # 32bc <_exit+0x19c>
    14fe:	3359                	jal	1284 <boot_port_log>
    1500:	00003537          	lui	a0,0x3
    1504:	4785                	li	a5,1
    1506:	31850513          	addi	a0,a0,792 # 3318 <_exit+0x1f8>
    150a:	80f908a3          	sb	a5,-2031(s2)
    150e:	3b9d                	jal	1284 <boot_port_log>
    1510:	cfbfe06f          	j	20a <__riscv_restore_4>

00001514 <easy_bootloader_run>:
    1514:	cadfe2ef          	jal	t0,1c0 <__riscv_save_12>
    1518:	20000ab7          	lui	s5,0x20000
    151c:	4d8a8713          	addi	a4,s5,1240 # 200004d8 <g_boot_ctx>
    1520:	6785                	lui	a5,0x1
    1522:	97ba                	add	a5,a5,a4
    1524:	8117c783          	lbu	a5,-2031(a5) # 811 <__stack_size+0x11>
    1528:	1101                	addi	sp,sp,-32
    152a:	30078363          	beqz	a5,1830 <easy_bootloader_run+0x31c>
    152e:	4d8a8413          	addi	s0,s5,1240
    1532:	40045503          	lhu	a0,1024(s0)
    1536:	40000593          	li	a1,1024
    153a:	20001937          	lui	s2,0x20001
    153e:	8d89                	sub	a1,a1,a0
    1540:	4d890913          	addi	s2,s2,1240 # 200014d8 <_ebss+0x7e8>
    1544:	c989                	beqz	a1,1556 <easy_bootloader_run+0x42>
    1546:	9522                	add	a0,a0,s0
    1548:	39f5                	jal	1244 <boot_port_uart_read>
    154a:	c511                	beqz	a0,1556 <easy_bootloader_run+0x42>
    154c:	40045783          	lhu	a5,1024(s0)
    1550:	953e                	add	a0,a0,a5
    1552:	40a41023          	sh	a0,1024(s0)
    1556:	6b41                	lui	s6,0x10
    1558:	6bad                	lui	s7,0xb
    155a:	1b7d                	addi	s6,s6,-1
    155c:	a55b8b93          	addi	s7,s7,-1451 # aa55 <_data_lma+0x7491>
    1560:	20000d37          	lui	s10,0x20000
    1564:	40045703          	lhu	a4,1024(s0)
    1568:	47a9                	li	a5,10
    156a:	2ce7f363          	bgeu	a5,a4,1830 <easy_bootloader_run+0x31c>
    156e:	4a29                	li	s4,10
    1570:	3f500c93          	li	s9,1013
    1574:	05500993          	li	s3,85
    1578:	40045703          	lhu	a4,1024(s0)
    157c:	2aea7a63          	bgeu	s4,a4,1830 <easy_bootloader_run+0x31c>
    1580:	4d8aa783          	lw	a5,1240(s5)
    1584:	4505                	li	a0,1
    1586:	0167f7b3          	and	a5,a5,s6
    158a:	01779963          	bne	a5,s7,159c <easy_bootloader_run+0x88>
    158e:	3044                	lbu	s1,5(s0)
    1590:	207c                	lbu	a5,6(s0)
    1592:	04a2                	slli	s1,s1,0x8
    1594:	8cdd                	or	s1,s1,a5
    1596:	1e9cf363          	bgeu	s9,s1,177c <easy_bootloader_run+0x268>
    159a:	4509                	li	a0,2
    159c:	3501                	jal	139c <bootloader_consume_cache>
    159e:	bfe9                	j	1578 <easy_bootloader_run+0x64>
    15a0:	00003537          	lui	a0,0x3
    15a4:	36850513          	addi	a0,a0,872 # 3368 <_exit+0x248>
    15a8:	39f1                	jal	1284 <boot_port_log>
    15aa:	6799                	lui	a5,0x6
    15ac:	7ef42c23          	sw	a5,2040(s0)
    15b0:	4785                	li	a5,1
    15b2:	80090023          	sb	zero,-2048(s2)
    15b6:	80f90823          	sb	a5,-2032(s2)
    15ba:	80094683          	lbu	a3,-2048(s2)
    15be:	7f842503          	lw	a0,2040(s0)
    15c2:	00040737          	lui	a4,0x40
    15c6:	009687b3          	add	a5,a3,s1
    15ca:	078d                	addi	a5,a5,3
    15cc:	9bf1                	andi	a5,a5,-4
    15ce:	97aa                	add	a5,a5,a0
    15d0:	80070713          	addi	a4,a4,-2048 # 3f800 <_data_lma+0x3c23c>
    15d4:	00f77763          	bgeu	a4,a5,15e2 <easy_bootloader_run+0xce>
    15d8:	00003537          	lui	a0,0x3
    15dc:	37850513          	addi	a0,a0,888 # 3378 <_exit+0x258>
    15e0:	a481                	j	1820 <easy_bootloader_run+0x30c>
    15e2:	ccb1                	beqz	s1,163e <easy_bootloader_run+0x12a>
    15e4:	12068663          	beqz	a3,1710 <easy_bootloader_run+0x1fc>
    15e8:	8722                	mv	a4,s0
    15ea:	4981                	li	s3,0
    15ec:	468d                	li	a3,3
    15ee:	80094783          	lbu	a5,-2048(s2)
    15f2:	0ef6ed63          	bltu	a3,a5,16ec <easy_bootloader_run+0x1d8>
    15f6:	0705                	addi	a4,a4,1
    15f8:	0c999f63          	bne	s3,s1,16d6 <easy_bootloader_run+0x1c2>
    15fc:	413484b3          	sub	s1,s1,s3
    1600:	ffc4f793          	andi	a5,s1,-4
    1604:	c39d                	beqz	a5,162a <easy_bootloader_run+0x116>
    1606:	7f842503          	lw	a0,2040(s0)
    160a:	04a18593          	addi	a1,gp,74 # 200008da <__global_pointer$+0x4a>
    160e:	863e                	mv	a2,a5
    1610:	95ce                	add	a1,a1,s3
    1612:	c63e                	sw	a5,12(sp)
    1614:	368d                	jal	1176 <boot_port_flash_write>
    1616:	20051763          	bnez	a0,1824 <easy_bootloader_run+0x310>
    161a:	47b2                	lw	a5,12(sp)
    161c:	7f842703          	lw	a4,2040(s0)
    1620:	99be                	add	s3,s3,a5
    1622:	973e                	add	a4,a4,a5
    1624:	7ee42c23          	sw	a4,2040(s0)
    1628:	8c9d                	sub	s1,s1,a5
    162a:	c891                	beqz	s1,163e <easy_bootloader_run+0x12a>
    162c:	04a18593          	addi	a1,gp,74 # 200008da <__global_pointer$+0x4a>
    1630:	8626                	mv	a2,s1
    1632:	95ce                	add	a1,a1,s3
    1634:	44418513          	addi	a0,gp,1092 # 20000cd4 <__global_pointer$+0x444>
    1638:	2149                	jal	1aba <memcpy>
    163a:	80990023          	sb	s1,-2048(s2)
    163e:	0a42                	slli	s4,s4,0x10
    1640:	0ca2                	slli	s9,s9,0x8
    1642:	019a6a33          	or	s4,s4,s9
    1646:	01ba6db3          	or	s11,s4,s11
    164a:	120d9363          	bnez	s11,1770 <easy_bootloader_run+0x25c>
    164e:	80094483          	lbu	s1,-2048(s2)
    1652:	cc9d                	beqz	s1,1690 <easy_bootloader_run+0x17c>
    1654:	8626                	mv	a2,s1
    1656:	44418593          	addi	a1,gp,1092 # 20000cd4 <__global_pointer$+0x444>
    165a:	0868                	addi	a0,sp,28
    165c:	7f842983          	lw	s3,2040(s0)
    1660:	29a9                	jal	1aba <memcpy>
    1662:	087c                	addi	a5,sp,28
    1664:	4611                	li	a2,4
    1666:	8e05                	sub	a2,a2,s1
    1668:	0ff00593          	li	a1,255
    166c:	00978533          	add	a0,a5,s1
    1670:	bb1fe0ef          	jal	ra,220 <memset>
    1674:	4611                	li	a2,4
    1676:	086c                	addi	a1,sp,28
    1678:	854e                	mv	a0,s3
    167a:	afdff0ef          	jal	ra,1176 <boot_port_flash_write>
    167e:	1a051363          	bnez	a0,1824 <easy_bootloader_run+0x310>
    1682:	7f842783          	lw	a5,2040(s0)
    1686:	80090023          	sb	zero,-2048(s2)
    168a:	0791                	addi	a5,a5,4
    168c:	7ef42c23          	sw	a5,2040(s0)
    1690:	7f842783          	lw	a5,2040(s0)
    1694:	75e9                	lui	a1,0xffffa
    1696:	00003537          	lui	a0,0x3
    169a:	95be                	add	a1,a1,a5
    169c:	39050513          	addi	a0,a0,912 # 3390 <_exit+0x270>
    16a0:	80090823          	sb	zero,-2032(s2)
    16a4:	36c5                	jal	1284 <boot_port_log>
    16a6:	6585                	lui	a1,0x1
    16a8:	000404b7          	lui	s1,0x40
    16ac:	80058593          	addi	a1,a1,-2048 # 800 <__stack_size>
    16b0:	80048513          	addi	a0,s1,-2048 # 3f800 <_data_lma+0x3c23c>
    16b4:	80892a03          	lw	s4,-2040(s2)
    16b8:	80c92983          	lw	s3,-2036(s2)
    16bc:	a3fff0ef          	jal	ra,10fa <boot_port_flash_erase>
    16c0:	c931                	beqz	a0,1714 <easy_bootloader_run+0x200>
    16c2:	00003537          	lui	a0,0x3
    16c6:	3b850513          	addi	a0,a0,952 # 33b8 <_exit+0x298>
    16ca:	3e6d                	jal	1284 <boot_port_log>
    16cc:	00003537          	lui	a0,0x3
    16d0:	42450513          	addi	a0,a0,1060 # 3424 <_exit+0x304>
    16d4:	a2b1                	j	1820 <easy_bootloader_run+0x30c>
    16d6:	00178613          	addi	a2,a5,1 # 6001 <_data_lma+0x2a3d>
    16da:	80c90023          	sb	a2,-2048(s2)
    16de:	40174603          	lbu	a2,1025(a4)
    16e2:	97a2                	add	a5,a5,s0
    16e4:	0985                	addi	s3,s3,1
    16e6:	7ec78e23          	sb	a2,2044(a5)
    16ea:	b711                	j	15ee <easy_bootloader_run+0xda>
    16ec:	4711                	li	a4,4
    16ee:	f0e797e3          	bne	a5,a4,15fc <easy_bootloader_run+0xe8>
    16f2:	4611                	li	a2,4
    16f4:	44418593          	addi	a1,gp,1092 # 20000cd4 <__global_pointer$+0x444>
    16f8:	a7fff0ef          	jal	ra,1176 <boot_port_flash_write>
    16fc:	12051463          	bnez	a0,1824 <easy_bootloader_run+0x310>
    1700:	7f842783          	lw	a5,2040(s0)
    1704:	80090023          	sb	zero,-2048(s2)
    1708:	0791                	addi	a5,a5,4
    170a:	7ef42c23          	sw	a5,2040(s0)
    170e:	b5fd                	j	15fc <easy_bootloader_run+0xe8>
    1710:	4981                	li	s3,0
    1712:	b5ed                	j	15fc <easy_bootloader_run+0xe8>
    1714:	4789                	li	a5,2
    1716:	4611                	li	a2,4
    1718:	086c                	addi	a1,sp,28
    171a:	80048513          	addi	a0,s1,-2048
    171e:	ce3e                	sw	a5,28(sp)
    1720:	a57ff0ef          	jal	ra,1176 <boot_port_flash_write>
    1724:	f545                	bnez	a0,16cc <easy_bootloader_run+0x1b8>
    1726:	4611                	li	a2,4
    1728:	086c                	addi	a1,sp,28
    172a:	80448513          	addi	a0,s1,-2044
    172e:	ce52                	sw	s4,28(sp)
    1730:	a47ff0ef          	jal	ra,1176 <boot_port_flash_write>
    1734:	fd41                	bnez	a0,16cc <easy_bootloader_run+0x1b8>
    1736:	4611                	li	a2,4
    1738:	086c                	addi	a1,sp,28
    173a:	80848513          	addi	a0,s1,-2040
    173e:	ce4e                	sw	s3,28(sp)
    1740:	a37ff0ef          	jal	ra,1176 <boot_port_flash_write>
    1744:	f541                	bnez	a0,16cc <easy_bootloader_run+0x1b8>
    1746:	80c92603          	lw	a2,-2036(s2)
    174a:	80892583          	lw	a1,-2040(s2)
    174e:	00003537          	lui	a0,0x3
    1752:	3d450513          	addi	a0,a0,980 # 33d4 <_exit+0x2b4>
    1756:	363d                	jal	1284 <boot_port_log>
    1758:	4599                	li	a1,6
    175a:	81018513          	addi	a0,gp,-2032 # 200000a0 <g_boot_ack>
    175e:	a9bff0ef          	jal	ra,11f8 <boot_port_uart_write>
    1762:	00003537          	lui	a0,0x3
    1766:	40050513          	addi	a0,a0,1024 # 3400 <_exit+0x2e0>
    176a:	3e29                	jal	1284 <boot_port_log>
    176c:	3105                	jal	138c <boot_port_system_reset>
    176e:	bbdd                	j	1564 <easy_bootloader_run+0x50>
    1770:	4599                	li	a1,6
    1772:	81018513          	addi	a0,gp,-2032 # 200000a0 <g_boot_ack>
    1776:	a83ff0ef          	jal	ra,11f8 <boot_port_uart_write>
    177a:	b3ed                	j	1564 <easy_bootloader_run+0x50>
    177c:	00b48813          	addi	a6,s1,11
    1780:	0b076863          	bltu	a4,a6,1830 <easy_bootloader_run+0x31c>
    1784:	00a48693          	addi	a3,s1,10
    1788:	e106f9e3          	bgeu	a3,a6,159a <easy_bootloader_run+0x86>
    178c:	00748593          	addi	a1,s1,7
    1790:	00b407b3          	add	a5,s0,a1
    1794:	2398                	lbu	a4,0(a5)
    1796:	009407b3          	add	a5,s0,s1
    179a:	279c                	lbu	a5,8(a5)
    179c:	0722                	slli	a4,a4,0x8
    179e:	4615                	li	a2,5
    17a0:	8f5d                	or	a4,a4,a5
    17a2:	4781                	li	a5,0
    17a4:	00c40533          	add	a0,s0,a2
    17a8:	2108                	lbu	a0,0(a0)
    17aa:	0605                	addi	a2,a2,1
    17ac:	97aa                	add	a5,a5,a0
    17ae:	07c2                	slli	a5,a5,0x10
    17b0:	83c1                	srli	a5,a5,0x10
    17b2:	feb669e3          	bltu	a2,a1,17a4 <easy_bootloader_run+0x290>
    17b6:	def712e3          	bne	a4,a5,159a <easy_bootloader_run+0x86>
    17ba:	009407b3          	add	a5,s0,s1
    17be:	379c                	lbu	a5,9(a5)
    17c0:	dd379de3          	bne	a5,s3,159a <easy_bootloader_run+0x86>
    17c4:	96a2                	add	a3,a3,s0
    17c6:	229c                	lbu	a5,0(a3)
    17c8:	dd3799e3          	bne	a5,s3,159a <easy_bootloader_run+0x86>
    17cc:	00244a03          	lbu	s4,2(s0)
    17d0:	00344c83          	lbu	s9,3(s0)
    17d4:	00444d83          	lbu	s11,4(s0)
    17d8:	c889                	beqz	s1,17ea <easy_bootloader_run+0x2d6>
    17da:	8626                	mv	a2,s1
    17dc:	4dfd0593          	addi	a1,s10,1247 # 200004df <g_boot_ctx+0x7>
    17e0:	04a18513          	addi	a0,gp,74 # 200008da <__global_pointer$+0x4a>
    17e4:	c642                	sw	a6,12(sp)
    17e6:	2cd1                	jal	1aba <memcpy>
    17e8:	4832                	lw	a6,12(sp)
    17ea:	01081513          	slli	a0,a6,0x10
    17ee:	8141                	srli	a0,a0,0x10
    17f0:	3675                	jal	139c <bootloader_consume_cache>
    17f2:	81094783          	lbu	a5,-2032(s2)
    17f6:	dc0792e3          	bnez	a5,15ba <easy_bootloader_run+0xa6>
    17fa:	00003537          	lui	a0,0x3
    17fe:	34050513          	addi	a0,a0,832 # 3340 <_exit+0x220>
    1802:	a83ff0ef          	jal	ra,1284 <boot_port_log>
    1806:	0003a5b7          	lui	a1,0x3a
    180a:	80058593          	addi	a1,a1,-2048 # 39800 <_data_lma+0x3623c>
    180e:	6519                	lui	a0,0x6
    1810:	8ebff0ef          	jal	ra,10fa <boot_port_flash_erase>
    1814:	d80506e3          	beqz	a0,15a0 <easy_bootloader_run+0x8c>
    1818:	00003537          	lui	a0,0x3
    181c:	35850513          	addi	a0,a0,856 # 3358 <_exit+0x238>
    1820:	a65ff0ef          	jal	ra,1284 <boot_port_log>
    1824:	00003537          	lui	a0,0x3
    1828:	44450513          	addi	a0,a0,1092 # 3444 <_exit+0x324>
    182c:	a59ff0ef          	jal	ra,1284 <boot_port_log>
    1830:	6105                	addi	sp,sp,32
    1832:	9cbfe06f          	j	1fc <__riscv_restore_12>

00001836 <rt_ringbuffer_status>:
    1836:	415c                	lw	a5,4(a0)
    1838:	01079713          	slli	a4,a5,0x10
    183c:	8345                	srli	a4,a4,0x11
    183e:	0117d693          	srli	a3,a5,0x11
    1842:	00d71763          	bne	a4,a3,1850 <rt_ringbuffer_status+0x1a>
    1846:	0107d513          	srli	a0,a5,0x10
    184a:	8d3d                	xor	a0,a0,a5
    184c:	8905                	andi	a0,a0,1
    184e:	8082                	ret
    1850:	4509                	li	a0,2
    1852:	8082                	ret

00001854 <rt_ringbuffer_init>:
    1854:	99dfe2ef          	jal	t0,1f0 <__riscv_save_0>
    1858:	ed19                	bnez	a0,1876 <rt_ringbuffer_init+0x22>
    185a:	000036b7          	lui	a3,0x3
    185e:	660d                	lui	a2,0x3
    1860:	4a468693          	addi	a3,a3,1188 # 34a4 <__func__.2878+0x14>
    1864:	46860613          	addi	a2,a2,1128 # 3468 <__func__.2857>
    1868:	03000593          	li	a1,48
    186c:	00003537          	lui	a0,0x3
    1870:	4b050513          	addi	a0,a0,1200 # 34b0 <__func__.2878+0x20>
    1874:	22dd                	jal	1a5a <__assert_func>
    1876:	00c04c63          	bgtz	a2,188e <rt_ringbuffer_init+0x3a>
    187a:	000036b7          	lui	a3,0x3
    187e:	660d                	lui	a2,0x3
    1880:	4cc68693          	addi	a3,a3,1228 # 34cc <__func__.2878+0x3c>
    1884:	46860613          	addi	a2,a2,1128 # 3468 <__func__.2857>
    1888:	03100593          	li	a1,49
    188c:	b7c5                	j	186c <rt_ringbuffer_init+0x18>
    188e:	9a71                	andi	a2,a2,-4
    1890:	00052223          	sw	zero,4(a0)
    1894:	c10c                	sw	a1,0(a0)
    1896:	a512                	sh	a2,8(a0)
    1898:	97dfe06f          	j	214 <__riscv_restore_0>

0000189c <rt_ringbuffer_data_len>:
    189c:	955fe2ef          	jal	t0,1f0 <__riscv_save_0>
    18a0:	842a                	mv	s0,a0
    18a2:	3f51                	jal	1836 <rt_ringbuffer_status>
    18a4:	c905                	beqz	a0,18d4 <rt_ringbuffer_data_len+0x38>
    18a6:	4785                	li	a5,1
    18a8:	00f51663          	bne	a0,a5,18b4 <rt_ringbuffer_data_len+0x18>
    18ac:	00841503          	lh	a0,8(s0)
    18b0:	965fe06f          	j	214 <__riscv_restore_0>
    18b4:	4048                	lw	a0,4(s0)
    18b6:	01155713          	srli	a4,a0,0x11
    18ba:	0542                	slli	a0,a0,0x10
    18bc:	8145                	srli	a0,a0,0x11
    18be:	00e57563          	bgeu	a0,a4,18c8 <rt_ringbuffer_data_len+0x2c>
    18c2:	40a70533          	sub	a0,a4,a0
    18c6:	b7ed                	j	18b0 <rt_ringbuffer_data_len+0x14>
    18c8:	00841783          	lh	a5,8(s0)
    18cc:	97ba                	add	a5,a5,a4
    18ce:	40a78533          	sub	a0,a5,a0
    18d2:	bff9                	j	18b0 <rt_ringbuffer_data_len+0x14>
    18d4:	4501                	li	a0,0
    18d6:	bfe9                	j	18b0 <rt_ringbuffer_data_len+0x14>

000018d8 <rt_ringbuffer_put>:
    18d8:	8fffe2ef          	jal	t0,1d6 <__riscv_save_4>
    18dc:	1141                	addi	sp,sp,-16
    18de:	ed19                	bnez	a0,18fc <rt_ringbuffer_put+0x24>
    18e0:	000036b7          	lui	a3,0x3
    18e4:	660d                	lui	a2,0x3
    18e6:	00003537          	lui	a0,0x3
    18ea:	4d868693          	addi	a3,a3,1240 # 34d8 <__func__.2878+0x48>
    18ee:	47c60613          	addi	a2,a2,1148 # 347c <__func__.2864>
    18f2:	04c00593          	li	a1,76
    18f6:	4b050513          	addi	a0,a0,1200 # 34b0 <__func__.2878+0x20>
    18fa:	2285                	jal	1a5a <__assert_func>
    18fc:	00851903          	lh	s2,8(a0)
    1900:	842a                	mv	s0,a0
    1902:	89ae                	mv	s3,a1
    1904:	c632                	sw	a2,12(sp)
    1906:	3f59                	jal	189c <rt_ringbuffer_data_len>
    1908:	40a90533          	sub	a0,s2,a0
    190c:	0542                	slli	a0,a0,0x10
    190e:	8141                	srli	a0,a0,0x10
    1910:	4481                	li	s1,0
    1912:	cd0d                	beqz	a0,194c <rt_ringbuffer_put+0x74>
    1914:	4632                	lw	a2,12(sp)
    1916:	84aa                	mv	s1,a0
    1918:	00a67363          	bgeu	a2,a0,191e <rt_ringbuffer_put+0x46>
    191c:	84b2                	mv	s1,a2
    191e:	4048                	lw	a0,4(s0)
    1920:	04c2                	slli	s1,s1,0x10
    1922:	80c1                	srli	s1,s1,0x10
    1924:	01155793          	srli	a5,a0,0x11
    1928:	4008                	lw	a0,0(s0)
    192a:	40f90633          	sub	a2,s2,a5
    192e:	953e                	add	a0,a0,a5
    1930:	02c4d263          	bge	s1,a2,1954 <rt_ringbuffer_put+0x7c>
    1934:	8626                	mv	a2,s1
    1936:	85ce                	mv	a1,s3
    1938:	2249                	jal	1aba <memcpy>
    193a:	405c                	lw	a5,4(s0)
    193c:	0117d713          	srli	a4,a5,0x11
    1940:	9726                	add	a4,a4,s1
    1942:	07be                	slli	a5,a5,0xf
    1944:	0746                	slli	a4,a4,0x11
    1946:	83bd                	srli	a5,a5,0xf
    1948:	8fd9                	or	a5,a5,a4
    194a:	c05c                	sw	a5,4(s0)
    194c:	8526                	mv	a0,s1
    194e:	0141                	addi	sp,sp,16
    1950:	8bbfe06f          	j	20a <__riscv_restore_4>
    1954:	85ce                	mv	a1,s3
    1956:	2295                	jal	1aba <memcpy>
    1958:	405c                	lw	a5,4(s0)
    195a:	00841583          	lh	a1,8(s0)
    195e:	4008                	lw	a0,0(s0)
    1960:	83c5                	srli	a5,a5,0x11
    1962:	8d9d                	sub	a1,a1,a5
    1964:	40b48633          	sub	a2,s1,a1
    1968:	95ce                	add	a1,a1,s3
    196a:	2a81                	jal	1aba <memcpy>
    196c:	4058                	lw	a4,4(s0)
    196e:	01075793          	srli	a5,a4,0x10
    1972:	8b85                	andi	a5,a5,1
    1974:	0017c793          	xori	a5,a5,1
    1978:	01079693          	slli	a3,a5,0x10
    197c:	77c1                	lui	a5,0xffff0
    197e:	17fd                	addi	a5,a5,-1
    1980:	8ff9                	and	a5,a5,a4
    1982:	8fd5                	or	a5,a5,a3
    1984:	2416                	lhu	a3,8(s0)
    1986:	0117d713          	srli	a4,a5,0x11
    198a:	8f15                	sub	a4,a4,a3
    198c:	bf55                	j	1940 <rt_ringbuffer_put+0x68>

0000198e <rt_ringbuffer_get>:
    198e:	849fe2ef          	jal	t0,1d6 <__riscv_save_4>
    1992:	1141                	addi	sp,sp,-16
    1994:	ed19                	bnez	a0,19b2 <rt_ringbuffer_get+0x24>
    1996:	000036b7          	lui	a3,0x3
    199a:	660d                	lui	a2,0x3
    199c:	00003537          	lui	a0,0x3
    19a0:	4d868693          	addi	a3,a3,1240 # 34d8 <__func__.2878+0x48>
    19a4:	49060613          	addi	a2,a2,1168 # 3490 <__func__.2878>
    19a8:	0be00593          	li	a1,190
    19ac:	4b050513          	addi	a0,a0,1200 # 34b0 <__func__.2878+0x20>
    19b0:	206d                	jal	1a5a <__assert_func>
    19b2:	842a                	mv	s0,a0
    19b4:	89ae                	mv	s3,a1
    19b6:	c632                	sw	a2,12(sp)
    19b8:	35d5                	jal	189c <rt_ringbuffer_data_len>
    19ba:	84aa                	mv	s1,a0
    19bc:	c931                	beqz	a0,1a10 <rt_ringbuffer_get+0x82>
    19be:	4632                	lw	a2,12(sp)
    19c0:	00c57563          	bgeu	a0,a2,19ca <rt_ringbuffer_get+0x3c>
    19c4:	01051613          	slli	a2,a0,0x10
    19c8:	8241                	srli	a2,a2,0x10
    19ca:	404c                	lw	a1,4(s0)
    19cc:	67a1                	lui	a5,0x8
    19ce:	fff78913          	addi	s2,a5,-1 # 7fff <_data_lma+0x4a3b>
    19d2:	8185                	srli	a1,a1,0x1
    19d4:	0125f5b3          	and	a1,a1,s2
    19d8:	00841703          	lh	a4,8(s0)
    19dc:	05c2                	slli	a1,a1,0x10
    19de:	401c                	lw	a5,0(s0)
    19e0:	81c1                	srli	a1,a1,0x10
    19e2:	8f0d                	sub	a4,a4,a1
    19e4:	84b2                	mv	s1,a2
    19e6:	95be                	add	a1,a1,a5
    19e8:	02e65863          	bge	a2,a4,1a18 <rt_ringbuffer_get+0x8a>
    19ec:	854e                	mv	a0,s3
    19ee:	20f1                	jal	1aba <memcpy>
    19f0:	4058                	lw	a4,4(s0)
    19f2:	00175793          	srli	a5,a4,0x1
    19f6:	0127f7b3          	and	a5,a5,s2
    19fa:	97a6                	add	a5,a5,s1
    19fc:	07c2                	slli	a5,a5,0x10
    19fe:	83c1                	srli	a5,a5,0x10
    1a00:	76c1                	lui	a3,0xffff0
    1a02:	0127f7b3          	and	a5,a5,s2
    1a06:	0685                	addi	a3,a3,1
    1a08:	0786                	slli	a5,a5,0x1
    1a0a:	8f75                	and	a4,a4,a3
    1a0c:	8fd9                	or	a5,a5,a4
    1a0e:	c05c                	sw	a5,4(s0)
    1a10:	8526                	mv	a0,s1
    1a12:	0141                	addi	sp,sp,16
    1a14:	ff6fe06f          	j	20a <__riscv_restore_4>
    1a18:	863a                	mv	a2,a4
    1a1a:	854e                	mv	a0,s3
    1a1c:	2879                	jal	1aba <memcpy>
    1a1e:	4048                	lw	a0,4(s0)
    1a20:	00841783          	lh	a5,8(s0)
    1a24:	400c                	lw	a1,0(s0)
    1a26:	8105                	srli	a0,a0,0x1
    1a28:	01257533          	and	a0,a0,s2
    1a2c:	0542                	slli	a0,a0,0x10
    1a2e:	8141                	srli	a0,a0,0x10
    1a30:	40a78533          	sub	a0,a5,a0
    1a34:	40a48633          	sub	a2,s1,a0
    1a38:	954e                	add	a0,a0,s3
    1a3a:	2041                	jal	1aba <memcpy>
    1a3c:	4054                	lw	a3,4(s0)
    1a3e:	0016f713          	andi	a4,a3,1
    1a42:	00174793          	xori	a5,a4,1
    1a46:	ffe6f713          	andi	a4,a3,-2
    1a4a:	8f5d                	or	a4,a4,a5
    1a4c:	2416                	lhu	a3,8(s0)
    1a4e:	00175793          	srli	a5,a4,0x1
    1a52:	0127f7b3          	and	a5,a5,s2
    1a56:	8f95                	sub	a5,a5,a3
    1a58:	b74d                	j	19fa <rt_ringbuffer_get+0x6c>

00001a5a <__assert_func>:
    1a5a:	80c18793          	addi	a5,gp,-2036 # 2000009c <_impure_ptr>
    1a5e:	439c                	lw	a5,0(a5)
    1a60:	1141                	addi	sp,sp,-16
    1a62:	8832                	mv	a6,a2
    1a64:	c606                	sw	ra,12(sp)
    1a66:	88aa                	mv	a7,a0
    1a68:	872e                	mv	a4,a1
    1a6a:	47c8                	lw	a0,12(a5)
    1a6c:	8636                	mv	a2,a3
    1a6e:	00002797          	auipc	a5,0x2
    1a72:	a7a78793          	addi	a5,a5,-1414 # 34e8 <__func__.2878+0x58>
    1a76:	00081763          	bnez	a6,1a84 <__assert_func+0x2a>
    1a7a:	00002797          	auipc	a5,0x2
    1a7e:	9a678793          	addi	a5,a5,-1626 # 3420 <_exit+0x300>
    1a82:	883e                	mv	a6,a5
    1a84:	86c6                	mv	a3,a7
    1a86:	00002597          	auipc	a1,0x2
    1a8a:	a7258593          	addi	a1,a1,-1422 # 34f8 <__func__.2878+0x68>
    1a8e:	2019                	jal	1a94 <fiprintf>
    1a90:	1e5000ef          	jal	ra,2474 <abort>

00001a94 <fiprintf>:
    1a94:	7139                	addi	sp,sp,-64
    1a96:	d432                	sw	a2,40(sp)
    1a98:	d636                	sw	a3,44(sp)
    1a9a:	da3e                	sw	a5,52(sp)
    1a9c:	d83a                	sw	a4,48(sp)
    1a9e:	dc42                	sw	a6,56(sp)
    1aa0:	de46                	sw	a7,60(sp)
    1aa2:	80c18793          	addi	a5,gp,-2036 # 2000009c <_impure_ptr>
    1aa6:	862e                	mv	a2,a1
    1aa8:	85aa                	mv	a1,a0
    1aaa:	4388                	lw	a0,0(a5)
    1aac:	1034                	addi	a3,sp,40
    1aae:	ce06                	sw	ra,28(sp)
    1ab0:	c636                	sw	a3,12(sp)
    1ab2:	229d                	jal	1c18 <_vfiprintf_r>
    1ab4:	40f2                	lw	ra,28(sp)
    1ab6:	6121                	addi	sp,sp,64
    1ab8:	8082                	ret

00001aba <memcpy>:
    1aba:	00a5c7b3          	xor	a5,a1,a0
    1abe:	8b8d                	andi	a5,a5,3
    1ac0:	00c50733          	add	a4,a0,a2
    1ac4:	e781                	bnez	a5,1acc <memcpy+0x12>
    1ac6:	478d                	li	a5,3
    1ac8:	00c7ed63          	bltu	a5,a2,1ae2 <memcpy+0x28>
    1acc:	87aa                	mv	a5,a0
    1ace:	08e57e63          	bgeu	a0,a4,1b6a <memcpy+0xb0>
    1ad2:	2194                	lbu	a3,0(a1)
    1ad4:	0785                	addi	a5,a5,1
    1ad6:	0585                	addi	a1,a1,1
    1ad8:	fed78fa3          	sb	a3,-1(a5)
    1adc:	fee7ebe3          	bltu	a5,a4,1ad2 <memcpy+0x18>
    1ae0:	8082                	ret
    1ae2:	00357693          	andi	a3,a0,3
    1ae6:	87aa                	mv	a5,a0
    1ae8:	ca89                	beqz	a3,1afa <memcpy+0x40>
    1aea:	2194                	lbu	a3,0(a1)
    1aec:	0785                	addi	a5,a5,1
    1aee:	0585                	addi	a1,a1,1
    1af0:	fed78fa3          	sb	a3,-1(a5)
    1af4:	0037f693          	andi	a3,a5,3
    1af8:	bfc5                	j	1ae8 <memcpy+0x2e>
    1afa:	ffc77693          	andi	a3,a4,-4
    1afe:	fe068613          	addi	a2,a3,-32 # fffeffe0 <_eusrstack+0xdffdffe0>
    1b02:	06c7f063          	bgeu	a5,a2,1b62 <memcpy+0xa8>
    1b06:	0005a383          	lw	t2,0(a1)
    1b0a:	0045a283          	lw	t0,4(a1)
    1b0e:	0085af83          	lw	t6,8(a1)
    1b12:	00c5af03          	lw	t5,12(a1)
    1b16:	0105ae83          	lw	t4,16(a1)
    1b1a:	0145ae03          	lw	t3,20(a1)
    1b1e:	0185a303          	lw	t1,24(a1)
    1b22:	01c5a883          	lw	a7,28(a1)
    1b26:	02458593          	addi	a1,a1,36
    1b2a:	0077a023          	sw	t2,0(a5)
    1b2e:	ffc5a803          	lw	a6,-4(a1)
    1b32:	0057a223          	sw	t0,4(a5)
    1b36:	01f7a423          	sw	t6,8(a5)
    1b3a:	01e7a623          	sw	t5,12(a5)
    1b3e:	01d7a823          	sw	t4,16(a5)
    1b42:	01c7aa23          	sw	t3,20(a5)
    1b46:	0067ac23          	sw	t1,24(a5)
    1b4a:	0117ae23          	sw	a7,28(a5)
    1b4e:	02478793          	addi	a5,a5,36
    1b52:	ff07ae23          	sw	a6,-4(a5)
    1b56:	b775                	j	1b02 <memcpy+0x48>
    1b58:	4190                	lw	a2,0(a1)
    1b5a:	0791                	addi	a5,a5,4
    1b5c:	0591                	addi	a1,a1,4
    1b5e:	fec7ae23          	sw	a2,-4(a5)
    1b62:	fed7ebe3          	bltu	a5,a3,1b58 <memcpy+0x9e>
    1b66:	f6e7e6e3          	bltu	a5,a4,1ad2 <memcpy+0x18>
    1b6a:	8082                	ret

00001b6c <memmove>:
    1b6c:	04a5f163          	bgeu	a1,a0,1bae <memmove+0x42>
    1b70:	00c586b3          	add	a3,a1,a2
    1b74:	02d57d63          	bgeu	a0,a3,1bae <memmove+0x42>
    1b78:	fff64593          	not	a1,a2
    1b7c:	4781                	li	a5,0
    1b7e:	17fd                	addi	a5,a5,-1
    1b80:	00f59363          	bne	a1,a5,1b86 <memmove+0x1a>
    1b84:	8082                	ret
    1b86:	00f68733          	add	a4,a3,a5
    1b8a:	00074803          	lbu	a6,0(a4)
    1b8e:	00c78733          	add	a4,a5,a2
    1b92:	972a                	add	a4,a4,a0
    1b94:	01070023          	sb	a6,0(a4)
    1b98:	b7dd                	j	1b7e <memmove+0x12>
    1b9a:	00f58733          	add	a4,a1,a5
    1b9e:	2314                	lbu	a3,0(a4)
    1ba0:	00f50733          	add	a4,a0,a5
    1ba4:	0785                	addi	a5,a5,1
    1ba6:	a314                	sb	a3,0(a4)
    1ba8:	fef619e3          	bne	a2,a5,1b9a <memmove+0x2e>
    1bac:	8082                	ret
    1bae:	4781                	li	a5,0
    1bb0:	bfe5                	j	1ba8 <memmove+0x3c>

00001bb2 <__sfputc_r>:
    1bb2:	461c                	lw	a5,8(a2)
    1bb4:	17fd                	addi	a5,a5,-1
    1bb6:	c61c                	sw	a5,8(a2)
    1bb8:	0007d963          	bgez	a5,1bca <__sfputc_r+0x18>
    1bbc:	4e18                	lw	a4,24(a2)
    1bbe:	00e7c563          	blt	a5,a4,1bc8 <__sfputc_r+0x16>
    1bc2:	47a9                	li	a5,10
    1bc4:	00f59363          	bne	a1,a5,1bca <__sfputc_r+0x18>
    1bc8:	add5                	j	22bc <__swbuf_r>
    1bca:	421c                	lw	a5,0(a2)
    1bcc:	852e                	mv	a0,a1
    1bce:	00178713          	addi	a4,a5,1
    1bd2:	c218                	sw	a4,0(a2)
    1bd4:	a38c                	sb	a1,0(a5)
    1bd6:	8082                	ret

00001bd8 <__sfputs_r>:
    1bd8:	1101                	addi	sp,sp,-32
    1bda:	cc22                	sw	s0,24(sp)
    1bdc:	ca26                	sw	s1,20(sp)
    1bde:	c84a                	sw	s2,16(sp)
    1be0:	c64e                	sw	s3,12(sp)
    1be2:	c452                	sw	s4,8(sp)
    1be4:	ce06                	sw	ra,28(sp)
    1be6:	892a                	mv	s2,a0
    1be8:	89ae                	mv	s3,a1
    1bea:	8432                	mv	s0,a2
    1bec:	00d604b3          	add	s1,a2,a3
    1bf0:	5a7d                	li	s4,-1
    1bf2:	00941463          	bne	s0,s1,1bfa <__sfputs_r+0x22>
    1bf6:	4501                	li	a0,0
    1bf8:	a801                	j	1c08 <__sfputs_r+0x30>
    1bfa:	200c                	lbu	a1,0(s0)
    1bfc:	864e                	mv	a2,s3
    1bfe:	854a                	mv	a0,s2
    1c00:	3f4d                	jal	1bb2 <__sfputc_r>
    1c02:	0405                	addi	s0,s0,1
    1c04:	ff4517e3          	bne	a0,s4,1bf2 <__sfputs_r+0x1a>
    1c08:	40f2                	lw	ra,28(sp)
    1c0a:	4462                	lw	s0,24(sp)
    1c0c:	44d2                	lw	s1,20(sp)
    1c0e:	4942                	lw	s2,16(sp)
    1c10:	49b2                	lw	s3,12(sp)
    1c12:	4a22                	lw	s4,8(sp)
    1c14:	6105                	addi	sp,sp,32
    1c16:	8082                	ret

00001c18 <_vfiprintf_r>:
    1c18:	7135                	addi	sp,sp,-160
    1c1a:	cd22                	sw	s0,152(sp)
    1c1c:	cb26                	sw	s1,148(sp)
    1c1e:	c94a                	sw	s2,144(sp)
    1c20:	c74e                	sw	s3,140(sp)
    1c22:	cf06                	sw	ra,156(sp)
    1c24:	c552                	sw	s4,136(sp)
    1c26:	c356                	sw	s5,132(sp)
    1c28:	c15a                	sw	s6,128(sp)
    1c2a:	dede                	sw	s7,124(sp)
    1c2c:	dce2                	sw	s8,120(sp)
    1c2e:	dae6                	sw	s9,116(sp)
    1c30:	89aa                	mv	s3,a0
    1c32:	84ae                	mv	s1,a1
    1c34:	8932                	mv	s2,a2
    1c36:	8436                	mv	s0,a3
    1c38:	c509                	beqz	a0,1c42 <_vfiprintf_r+0x2a>
    1c3a:	4d1c                	lw	a5,24(a0)
    1c3c:	e399                	bnez	a5,1c42 <_vfiprintf_r+0x2a>
    1c3e:	291000ef          	jal	ra,26ce <__sinit>
    1c42:	00002797          	auipc	a5,0x2
    1c46:	94278793          	addi	a5,a5,-1726 # 3584 <__sf_fake_stdin>
    1c4a:	0cf49863          	bne	s1,a5,1d1a <_vfiprintf_r+0x102>
    1c4e:	0049a483          	lw	s1,4(s3)
    1c52:	24de                	lhu	a5,12(s1)
    1c54:	8ba1                	andi	a5,a5,8
    1c56:	c7e5                	beqz	a5,1d3e <_vfiprintf_r+0x126>
    1c58:	489c                	lw	a5,16(s1)
    1c5a:	c3f5                	beqz	a5,1d3e <_vfiprintf_r+0x126>
    1c5c:	02000793          	li	a5,32
    1c60:	02f104a3          	sb	a5,41(sp)
    1c64:	03000793          	li	a5,48
    1c68:	d202                	sw	zero,36(sp)
    1c6a:	02f10523          	sb	a5,42(sp)
    1c6e:	c622                	sw	s0,12(sp)
    1c70:	02500b93          	li	s7,37
    1c74:	00002a97          	auipc	s5,0x2
    1c78:	8b4a8a93          	addi	s5,s5,-1868 # 3528 <__func__.2878+0x98>
    1c7c:	4c05                	li	s8,1
    1c7e:	4b29                	li	s6,10
    1c80:	844a                	mv	s0,s2
    1c82:	201c                	lbu	a5,0(s0)
    1c84:	c399                	beqz	a5,1c8a <_vfiprintf_r+0x72>
    1c86:	0d779e63          	bne	a5,s7,1d62 <_vfiprintf_r+0x14a>
    1c8a:	41240cb3          	sub	s9,s0,s2
    1c8e:	000c8d63          	beqz	s9,1ca8 <_vfiprintf_r+0x90>
    1c92:	86e6                	mv	a3,s9
    1c94:	864a                	mv	a2,s2
    1c96:	85a6                	mv	a1,s1
    1c98:	854e                	mv	a0,s3
    1c9a:	3f3d                	jal	1bd8 <__sfputs_r>
    1c9c:	57fd                	li	a5,-1
    1c9e:	1ef50163          	beq	a0,a5,1e80 <_vfiprintf_r+0x268>
    1ca2:	5692                	lw	a3,36(sp)
    1ca4:	96e6                	add	a3,a3,s9
    1ca6:	d236                	sw	a3,36(sp)
    1ca8:	201c                	lbu	a5,0(s0)
    1caa:	1c078b63          	beqz	a5,1e80 <_vfiprintf_r+0x268>
    1cae:	57fd                	li	a5,-1
    1cb0:	00140913          	addi	s2,s0,1
    1cb4:	c802                	sw	zero,16(sp)
    1cb6:	ce02                	sw	zero,28(sp)
    1cb8:	ca3e                	sw	a5,20(sp)
    1cba:	cc02                	sw	zero,24(sp)
    1cbc:	040109a3          	sb	zero,83(sp)
    1cc0:	d482                	sw	zero,104(sp)
    1cc2:	00094583          	lbu	a1,0(s2)
    1cc6:	4615                	li	a2,5
    1cc8:	8556                	mv	a0,s5
    1cca:	459000ef          	jal	ra,2922 <memchr>
    1cce:	00190413          	addi	s0,s2,1
    1cd2:	47c2                	lw	a5,16(sp)
    1cd4:	e949                	bnez	a0,1d66 <_vfiprintf_r+0x14e>
    1cd6:	0107f713          	andi	a4,a5,16
    1cda:	c709                	beqz	a4,1ce4 <_vfiprintf_r+0xcc>
    1cdc:	02000713          	li	a4,32
    1ce0:	04e109a3          	sb	a4,83(sp)
    1ce4:	0087f713          	andi	a4,a5,8
    1ce8:	c709                	beqz	a4,1cf2 <_vfiprintf_r+0xda>
    1cea:	02b00713          	li	a4,43
    1cee:	04e109a3          	sb	a4,83(sp)
    1cf2:	00094683          	lbu	a3,0(s2)
    1cf6:	02a00713          	li	a4,42
    1cfa:	06e68e63          	beq	a3,a4,1d76 <_vfiprintf_r+0x15e>
    1cfe:	47f2                	lw	a5,28(sp)
    1d00:	844a                	mv	s0,s2
    1d02:	4681                	li	a3,0
    1d04:	4625                	li	a2,9
    1d06:	2018                	lbu	a4,0(s0)
    1d08:	00140593          	addi	a1,s0,1
    1d0c:	fd070713          	addi	a4,a4,-48
    1d10:	0ae67663          	bgeu	a2,a4,1dbc <_vfiprintf_r+0x1a4>
    1d14:	caad                	beqz	a3,1d86 <_vfiprintf_r+0x16e>
    1d16:	ce3e                	sw	a5,28(sp)
    1d18:	a0bd                	j	1d86 <_vfiprintf_r+0x16e>
    1d1a:	00002797          	auipc	a5,0x2
    1d1e:	88a78793          	addi	a5,a5,-1910 # 35a4 <__sf_fake_stdout>
    1d22:	00f49563          	bne	s1,a5,1d2c <_vfiprintf_r+0x114>
    1d26:	0089a483          	lw	s1,8(s3)
    1d2a:	b725                	j	1c52 <_vfiprintf_r+0x3a>
    1d2c:	00002797          	auipc	a5,0x2
    1d30:	83878793          	addi	a5,a5,-1992 # 3564 <__sf_fake_stderr>
    1d34:	f0f49fe3          	bne	s1,a5,1c52 <_vfiprintf_r+0x3a>
    1d38:	00c9a483          	lw	s1,12(s3)
    1d3c:	bf19                	j	1c52 <_vfiprintf_r+0x3a>
    1d3e:	85a6                	mv	a1,s1
    1d40:	854e                	mv	a0,s3
    1d42:	2d1d                	jal	2378 <__swsetup_r>
    1d44:	dd01                	beqz	a0,1c5c <_vfiprintf_r+0x44>
    1d46:	557d                	li	a0,-1
    1d48:	40fa                	lw	ra,156(sp)
    1d4a:	446a                	lw	s0,152(sp)
    1d4c:	44da                	lw	s1,148(sp)
    1d4e:	494a                	lw	s2,144(sp)
    1d50:	49ba                	lw	s3,140(sp)
    1d52:	4a2a                	lw	s4,136(sp)
    1d54:	4a9a                	lw	s5,132(sp)
    1d56:	4b0a                	lw	s6,128(sp)
    1d58:	5bf6                	lw	s7,124(sp)
    1d5a:	5c66                	lw	s8,120(sp)
    1d5c:	5cd6                	lw	s9,116(sp)
    1d5e:	610d                	addi	sp,sp,160
    1d60:	8082                	ret
    1d62:	0405                	addi	s0,s0,1
    1d64:	bf39                	j	1c82 <_vfiprintf_r+0x6a>
    1d66:	41550533          	sub	a0,a0,s5
    1d6a:	00ac1533          	sll	a0,s8,a0
    1d6e:	8fc9                	or	a5,a5,a0
    1d70:	c83e                	sw	a5,16(sp)
    1d72:	8922                	mv	s2,s0
    1d74:	b7b9                	j	1cc2 <_vfiprintf_r+0xaa>
    1d76:	4732                	lw	a4,12(sp)
    1d78:	00470693          	addi	a3,a4,4
    1d7c:	4318                	lw	a4,0(a4)
    1d7e:	c636                	sw	a3,12(sp)
    1d80:	02074763          	bltz	a4,1dae <_vfiprintf_r+0x196>
    1d84:	ce3a                	sw	a4,28(sp)
    1d86:	2018                	lbu	a4,0(s0)
    1d88:	02e00793          	li	a5,46
    1d8c:	04f71d63          	bne	a4,a5,1de6 <_vfiprintf_r+0x1ce>
    1d90:	3018                	lbu	a4,1(s0)
    1d92:	02a00793          	li	a5,42
    1d96:	02f71b63          	bne	a4,a5,1dcc <_vfiprintf_r+0x1b4>
    1d9a:	47b2                	lw	a5,12(sp)
    1d9c:	0409                	addi	s0,s0,2
    1d9e:	00478713          	addi	a4,a5,4
    1da2:	439c                	lw	a5,0(a5)
    1da4:	c63a                	sw	a4,12(sp)
    1da6:	0207c163          	bltz	a5,1dc8 <_vfiprintf_r+0x1b0>
    1daa:	ca3e                	sw	a5,20(sp)
    1dac:	a82d                	j	1de6 <_vfiprintf_r+0x1ce>
    1dae:	40e00733          	neg	a4,a4
    1db2:	0027e793          	ori	a5,a5,2
    1db6:	ce3a                	sw	a4,28(sp)
    1db8:	c83e                	sw	a5,16(sp)
    1dba:	b7f1                	j	1d86 <_vfiprintf_r+0x16e>
    1dbc:	036787b3          	mul	a5,a5,s6
    1dc0:	4685                	li	a3,1
    1dc2:	842e                	mv	s0,a1
    1dc4:	97ba                	add	a5,a5,a4
    1dc6:	b781                	j	1d06 <_vfiprintf_r+0xee>
    1dc8:	57fd                	li	a5,-1
    1dca:	b7c5                	j	1daa <_vfiprintf_r+0x192>
    1dcc:	0405                	addi	s0,s0,1
    1dce:	ca02                	sw	zero,20(sp)
    1dd0:	4681                	li	a3,0
    1dd2:	4781                	li	a5,0
    1dd4:	4625                	li	a2,9
    1dd6:	2018                	lbu	a4,0(s0)
    1dd8:	00140593          	addi	a1,s0,1
    1ddc:	fd070713          	addi	a4,a4,-48
    1de0:	06e67663          	bgeu	a2,a4,1e4c <_vfiprintf_r+0x234>
    1de4:	f2f9                	bnez	a3,1daa <_vfiprintf_r+0x192>
    1de6:	200c                	lbu	a1,0(s0)
    1de8:	460d                	li	a2,3
    1dea:	00001517          	auipc	a0,0x1
    1dee:	74650513          	addi	a0,a0,1862 # 3530 <__func__.2878+0xa0>
    1df2:	331000ef          	jal	ra,2922 <memchr>
    1df6:	cd11                	beqz	a0,1e12 <_vfiprintf_r+0x1fa>
    1df8:	00001797          	auipc	a5,0x1
    1dfc:	73878793          	addi	a5,a5,1848 # 3530 <__func__.2878+0xa0>
    1e00:	8d1d                	sub	a0,a0,a5
    1e02:	04000793          	li	a5,64
    1e06:	00a797b3          	sll	a5,a5,a0
    1e0a:	4542                	lw	a0,16(sp)
    1e0c:	0405                	addi	s0,s0,1
    1e0e:	8d5d                	or	a0,a0,a5
    1e10:	c82a                	sw	a0,16(sp)
    1e12:	200c                	lbu	a1,0(s0)
    1e14:	4619                	li	a2,6
    1e16:	00001517          	auipc	a0,0x1
    1e1a:	71e50513          	addi	a0,a0,1822 # 3534 <__func__.2878+0xa4>
    1e1e:	00140913          	addi	s2,s0,1
    1e22:	02b10423          	sb	a1,40(sp)
    1e26:	2fd000ef          	jal	ra,2922 <memchr>
    1e2a:	c135                	beqz	a0,1e8e <_vfiprintf_r+0x276>
    1e2c:	ffffe797          	auipc	a5,0xffffe
    1e30:	1d478793          	addi	a5,a5,468 # 0 <_sinit>
    1e34:	e795                	bnez	a5,1e60 <_vfiprintf_r+0x248>
    1e36:	4742                	lw	a4,16(sp)
    1e38:	47b2                	lw	a5,12(sp)
    1e3a:	10077713          	andi	a4,a4,256
    1e3e:	cf09                	beqz	a4,1e58 <_vfiprintf_r+0x240>
    1e40:	0791                	addi	a5,a5,4
    1e42:	c63e                	sw	a5,12(sp)
    1e44:	5792                	lw	a5,36(sp)
    1e46:	97d2                	add	a5,a5,s4
    1e48:	d23e                	sw	a5,36(sp)
    1e4a:	bd1d                	j	1c80 <_vfiprintf_r+0x68>
    1e4c:	036787b3          	mul	a5,a5,s6
    1e50:	4685                	li	a3,1
    1e52:	842e                	mv	s0,a1
    1e54:	97ba                	add	a5,a5,a4
    1e56:	b741                	j	1dd6 <_vfiprintf_r+0x1be>
    1e58:	079d                	addi	a5,a5,7
    1e5a:	9be1                	andi	a5,a5,-8
    1e5c:	07a1                	addi	a5,a5,8
    1e5e:	b7d5                	j	1e42 <_vfiprintf_r+0x22a>
    1e60:	0078                	addi	a4,sp,12
    1e62:	00000697          	auipc	a3,0x0
    1e66:	d7668693          	addi	a3,a3,-650 # 1bd8 <__sfputs_r>
    1e6a:	8626                	mv	a2,s1
    1e6c:	080c                	addi	a1,sp,16
    1e6e:	854e                	mv	a0,s3
    1e70:	00000097          	auipc	ra,0x0
    1e74:	000000e7          	jalr	zero # 0 <_sinit>
    1e78:	57fd                	li	a5,-1
    1e7a:	8a2a                	mv	s4,a0
    1e7c:	fcf514e3          	bne	a0,a5,1e44 <_vfiprintf_r+0x22c>
    1e80:	24de                	lhu	a5,12(s1)
    1e82:	0407f793          	andi	a5,a5,64
    1e86:	ec0790e3          	bnez	a5,1d46 <_vfiprintf_r+0x12e>
    1e8a:	5512                	lw	a0,36(sp)
    1e8c:	bd75                	j	1d48 <_vfiprintf_r+0x130>
    1e8e:	0078                	addi	a4,sp,12
    1e90:	00000697          	auipc	a3,0x0
    1e94:	d4868693          	addi	a3,a3,-696 # 1bd8 <__sfputs_r>
    1e98:	8626                	mv	a2,s1
    1e9a:	080c                	addi	a1,sp,16
    1e9c:	854e                	mv	a0,s3
    1e9e:	2a01                	jal	1fae <_printf_i>
    1ea0:	bfe1                	j	1e78 <_vfiprintf_r+0x260>

00001ea2 <_printf_common>:
    1ea2:	7179                	addi	sp,sp,-48
    1ea4:	ca56                	sw	s5,20(sp)
    1ea6:	499c                	lw	a5,16(a1)
    1ea8:	8aba                	mv	s5,a4
    1eaa:	4598                	lw	a4,8(a1)
    1eac:	d422                	sw	s0,40(sp)
    1eae:	d226                	sw	s1,36(sp)
    1eb0:	ce4e                	sw	s3,28(sp)
    1eb2:	cc52                	sw	s4,24(sp)
    1eb4:	d606                	sw	ra,44(sp)
    1eb6:	d04a                	sw	s2,32(sp)
    1eb8:	c85a                	sw	s6,16(sp)
    1eba:	c65e                	sw	s7,12(sp)
    1ebc:	89aa                	mv	s3,a0
    1ebe:	842e                	mv	s0,a1
    1ec0:	84b2                	mv	s1,a2
    1ec2:	8a36                	mv	s4,a3
    1ec4:	00e7d363          	bge	a5,a4,1eca <_printf_common+0x28>
    1ec8:	87ba                	mv	a5,a4
    1eca:	c09c                	sw	a5,0(s1)
    1ecc:	04344703          	lbu	a4,67(s0)
    1ed0:	c319                	beqz	a4,1ed6 <_printf_common+0x34>
    1ed2:	0785                	addi	a5,a5,1
    1ed4:	c09c                	sw	a5,0(s1)
    1ed6:	401c                	lw	a5,0(s0)
    1ed8:	0207f793          	andi	a5,a5,32
    1edc:	c781                	beqz	a5,1ee4 <_printf_common+0x42>
    1ede:	409c                	lw	a5,0(s1)
    1ee0:	0789                	addi	a5,a5,2
    1ee2:	c09c                	sw	a5,0(s1)
    1ee4:	00042903          	lw	s2,0(s0)
    1ee8:	00697913          	andi	s2,s2,6
    1eec:	00091a63          	bnez	s2,1f00 <_printf_common+0x5e>
    1ef0:	01940b13          	addi	s6,s0,25
    1ef4:	5bfd                	li	s7,-1
    1ef6:	445c                	lw	a5,12(s0)
    1ef8:	4098                	lw	a4,0(s1)
    1efa:	8f99                	sub	a5,a5,a4
    1efc:	04f94c63          	blt	s2,a5,1f54 <_printf_common+0xb2>
    1f00:	401c                	lw	a5,0(s0)
    1f02:	04344683          	lbu	a3,67(s0)
    1f06:	0207f793          	andi	a5,a5,32
    1f0a:	00d036b3          	snez	a3,a3
    1f0e:	eba5                	bnez	a5,1f7e <_printf_common+0xdc>
    1f10:	04340613          	addi	a2,s0,67
    1f14:	85d2                	mv	a1,s4
    1f16:	854e                	mv	a0,s3
    1f18:	9a82                	jalr	s5
    1f1a:	57fd                	li	a5,-1
    1f1c:	04f50363          	beq	a0,a5,1f62 <_printf_common+0xc0>
    1f20:	401c                	lw	a5,0(s0)
    1f22:	4611                	li	a2,4
    1f24:	4098                	lw	a4,0(s1)
    1f26:	8b99                	andi	a5,a5,6
    1f28:	4454                	lw	a3,12(s0)
    1f2a:	4481                	li	s1,0
    1f2c:	00c79763          	bne	a5,a2,1f3a <_printf_common+0x98>
    1f30:	40e684b3          	sub	s1,a3,a4
    1f34:	0004d363          	bgez	s1,1f3a <_printf_common+0x98>
    1f38:	4481                	li	s1,0
    1f3a:	441c                	lw	a5,8(s0)
    1f3c:	4818                	lw	a4,16(s0)
    1f3e:	00f75463          	bge	a4,a5,1f46 <_printf_common+0xa4>
    1f42:	8f99                	sub	a5,a5,a4
    1f44:	94be                	add	s1,s1,a5
    1f46:	4901                	li	s2,0
    1f48:	0469                	addi	s0,s0,26
    1f4a:	5b7d                	li	s6,-1
    1f4c:	05249863          	bne	s1,s2,1f9c <_printf_common+0xfa>
    1f50:	4501                	li	a0,0
    1f52:	a809                	j	1f64 <_printf_common+0xc2>
    1f54:	4685                	li	a3,1
    1f56:	865a                	mv	a2,s6
    1f58:	85d2                	mv	a1,s4
    1f5a:	854e                	mv	a0,s3
    1f5c:	9a82                	jalr	s5
    1f5e:	01751e63          	bne	a0,s7,1f7a <_printf_common+0xd8>
    1f62:	557d                	li	a0,-1
    1f64:	50b2                	lw	ra,44(sp)
    1f66:	5422                	lw	s0,40(sp)
    1f68:	5492                	lw	s1,36(sp)
    1f6a:	5902                	lw	s2,32(sp)
    1f6c:	49f2                	lw	s3,28(sp)
    1f6e:	4a62                	lw	s4,24(sp)
    1f70:	4ad2                	lw	s5,20(sp)
    1f72:	4b42                	lw	s6,16(sp)
    1f74:	4bb2                	lw	s7,12(sp)
    1f76:	6145                	addi	sp,sp,48
    1f78:	8082                	ret
    1f7a:	0905                	addi	s2,s2,1
    1f7c:	bfad                	j	1ef6 <_printf_common+0x54>
    1f7e:	00d40733          	add	a4,s0,a3
    1f82:	03000613          	li	a2,48
    1f86:	04c701a3          	sb	a2,67(a4)
    1f8a:	04544703          	lbu	a4,69(s0)
    1f8e:	00168793          	addi	a5,a3,1
    1f92:	97a2                	add	a5,a5,s0
    1f94:	0689                	addi	a3,a3,2
    1f96:	04e781a3          	sb	a4,67(a5)
    1f9a:	bf9d                	j	1f10 <_printf_common+0x6e>
    1f9c:	4685                	li	a3,1
    1f9e:	8622                	mv	a2,s0
    1fa0:	85d2                	mv	a1,s4
    1fa2:	854e                	mv	a0,s3
    1fa4:	9a82                	jalr	s5
    1fa6:	fb650ee3          	beq	a0,s6,1f62 <_printf_common+0xc0>
    1faa:	0905                	addi	s2,s2,1
    1fac:	b745                	j	1f4c <_printf_common+0xaa>

00001fae <_printf_i>:
    1fae:	7179                	addi	sp,sp,-48
    1fb0:	d422                	sw	s0,40(sp)
    1fb2:	d226                	sw	s1,36(sp)
    1fb4:	d04a                	sw	s2,32(sp)
    1fb6:	ce4e                	sw	s3,28(sp)
    1fb8:	d606                	sw	ra,44(sp)
    1fba:	cc52                	sw	s4,24(sp)
    1fbc:	ca56                	sw	s5,20(sp)
    1fbe:	c85a                	sw	s6,16(sp)
    1fc0:	89b6                	mv	s3,a3
    1fc2:	2d94                	lbu	a3,24(a1)
    1fc4:	06900793          	li	a5,105
    1fc8:	8932                	mv	s2,a2
    1fca:	84aa                	mv	s1,a0
    1fcc:	842e                	mv	s0,a1
    1fce:	04358613          	addi	a2,a1,67
    1fd2:	02f68d63          	beq	a3,a5,200c <_printf_i+0x5e>
    1fd6:	06d7e263          	bltu	a5,a3,203a <_printf_i+0x8c>
    1fda:	05800793          	li	a5,88
    1fde:	18f68663          	beq	a3,a5,216a <_printf_i+0x1bc>
    1fe2:	00d7ed63          	bltu	a5,a3,1ffc <_printf_i+0x4e>
    1fe6:	20068e63          	beqz	a3,2202 <_printf_i+0x254>
    1fea:	04300793          	li	a5,67
    1fee:	0af68f63          	beq	a3,a5,20ac <_printf_i+0xfe>
    1ff2:	04240a93          	addi	s5,s0,66
    1ff6:	04d40123          	sb	a3,66(s0)
    1ffa:	a0d1                	j	20be <_printf_i+0x110>
    1ffc:	06300793          	li	a5,99
    2000:	0af68663          	beq	a3,a5,20ac <_printf_i+0xfe>
    2004:	06400793          	li	a5,100
    2008:	fef695e3          	bne	a3,a5,1ff2 <_printf_i+0x44>
    200c:	401c                	lw	a5,0(s0)
    200e:	4308                	lw	a0,0(a4)
    2010:	0807f693          	andi	a3,a5,128
    2014:	00450593          	addi	a1,a0,4
    2018:	c6cd                	beqz	a3,20c2 <_printf_i+0x114>
    201a:	411c                	lw	a5,0(a0)
    201c:	c30c                	sw	a1,0(a4)
    201e:	0007d863          	bgez	a5,202e <_printf_i+0x80>
    2022:	02d00713          	li	a4,45
    2026:	40f007b3          	neg	a5,a5
    202a:	04e401a3          	sb	a4,67(s0)
    202e:	00001697          	auipc	a3,0x1
    2032:	50e68693          	addi	a3,a3,1294 # 353c <__func__.2878+0xac>
    2036:	4729                	li	a4,10
    2038:	a86d                	j	20f2 <_printf_i+0x144>
    203a:	07000793          	li	a5,112
    203e:	16f68263          	beq	a3,a5,21a2 <_printf_i+0x1f4>
    2042:	02d7e563          	bltu	a5,a3,206c <_printf_i+0xbe>
    2046:	06e00793          	li	a5,110
    204a:	18f68963          	beq	a3,a5,21dc <_printf_i+0x22e>
    204e:	06f00793          	li	a5,111
    2052:	faf690e3          	bne	a3,a5,1ff2 <_printf_i+0x44>
    2056:	400c                	lw	a1,0(s0)
    2058:	431c                	lw	a5,0(a4)
    205a:	0805f813          	andi	a6,a1,128
    205e:	00478513          	addi	a0,a5,4
    2062:	06080863          	beqz	a6,20d2 <_printf_i+0x124>
    2066:	c308                	sw	a0,0(a4)
    2068:	439c                	lw	a5,0(a5)
    206a:	a88d                	j	20dc <_printf_i+0x12e>
    206c:	07500793          	li	a5,117
    2070:	fef683e3          	beq	a3,a5,2056 <_printf_i+0xa8>
    2074:	07800793          	li	a5,120
    2078:	12f68963          	beq	a3,a5,21aa <_printf_i+0x1fc>
    207c:	07300793          	li	a5,115
    2080:	f6f699e3          	bne	a3,a5,1ff2 <_printf_i+0x44>
    2084:	431c                	lw	a5,0(a4)
    2086:	41d0                	lw	a2,4(a1)
    2088:	4581                	li	a1,0
    208a:	00478693          	addi	a3,a5,4
    208e:	c314                	sw	a3,0(a4)
    2090:	0007aa83          	lw	s5,0(a5)
    2094:	8556                	mv	a0,s5
    2096:	08d000ef          	jal	ra,2922 <memchr>
    209a:	c501                	beqz	a0,20a2 <_printf_i+0xf4>
    209c:	41550533          	sub	a0,a0,s5
    20a0:	c048                	sw	a0,4(s0)
    20a2:	405c                	lw	a5,4(s0)
    20a4:	c81c                	sw	a5,16(s0)
    20a6:	040401a3          	sb	zero,67(s0)
    20aa:	a861                	j	2142 <_printf_i+0x194>
    20ac:	431c                	lw	a5,0(a4)
    20ae:	04240a93          	addi	s5,s0,66
    20b2:	00478693          	addi	a3,a5,4
    20b6:	439c                	lw	a5,0(a5)
    20b8:	c314                	sw	a3,0(a4)
    20ba:	04f40123          	sb	a5,66(s0)
    20be:	4785                	li	a5,1
    20c0:	b7d5                	j	20a4 <_printf_i+0xf6>
    20c2:	0407f693          	andi	a3,a5,64
    20c6:	411c                	lw	a5,0(a0)
    20c8:	c30c                	sw	a1,0(a4)
    20ca:	dab1                	beqz	a3,201e <_printf_i+0x70>
    20cc:	07c2                	slli	a5,a5,0x10
    20ce:	87c1                	srai	a5,a5,0x10
    20d0:	b7b9                	j	201e <_printf_i+0x70>
    20d2:	0405f593          	andi	a1,a1,64
    20d6:	c308                	sw	a0,0(a4)
    20d8:	d9c1                	beqz	a1,2068 <_printf_i+0xba>
    20da:	239e                	lhu	a5,0(a5)
    20dc:	06f00713          	li	a4,111
    20e0:	0ee68663          	beq	a3,a4,21cc <_printf_i+0x21e>
    20e4:	00001697          	auipc	a3,0x1
    20e8:	45868693          	addi	a3,a3,1112 # 353c <__func__.2878+0xac>
    20ec:	4729                	li	a4,10
    20ee:	040401a3          	sb	zero,67(s0)
    20f2:	404c                	lw	a1,4(s0)
    20f4:	c40c                	sw	a1,8(s0)
    20f6:	0005c563          	bltz	a1,2100 <_printf_i+0x152>
    20fa:	4008                	lw	a0,0(s0)
    20fc:	996d                	andi	a0,a0,-5
    20fe:	c008                	sw	a0,0(s0)
    2100:	e399                	bnez	a5,2106 <_printf_i+0x158>
    2102:	8ab2                	mv	s5,a2
    2104:	cd89                	beqz	a1,211e <_printf_i+0x170>
    2106:	8ab2                	mv	s5,a2
    2108:	02e7f5b3          	remu	a1,a5,a4
    210c:	1afd                	addi	s5,s5,-1
    210e:	95b6                	add	a1,a1,a3
    2110:	218c                	lbu	a1,0(a1)
    2112:	00ba8023          	sb	a1,0(s5)
    2116:	02e7d5b3          	divu	a1,a5,a4
    211a:	0ae7ff63          	bgeu	a5,a4,21d8 <_printf_i+0x22a>
    211e:	47a1                	li	a5,8
    2120:	00f71e63          	bne	a4,a5,213c <_printf_i+0x18e>
    2124:	401c                	lw	a5,0(s0)
    2126:	8b85                	andi	a5,a5,1
    2128:	cb91                	beqz	a5,213c <_printf_i+0x18e>
    212a:	4058                	lw	a4,4(s0)
    212c:	481c                	lw	a5,16(s0)
    212e:	00e7c763          	blt	a5,a4,213c <_printf_i+0x18e>
    2132:	03000793          	li	a5,48
    2136:	fefa8fa3          	sb	a5,-1(s5)
    213a:	1afd                	addi	s5,s5,-1
    213c:	41560633          	sub	a2,a2,s5
    2140:	c810                	sw	a2,16(s0)
    2142:	874e                	mv	a4,s3
    2144:	86ca                	mv	a3,s2
    2146:	0070                	addi	a2,sp,12
    2148:	85a2                	mv	a1,s0
    214a:	8526                	mv	a0,s1
    214c:	3b99                	jal	1ea2 <_printf_common>
    214e:	5a7d                	li	s4,-1
    2150:	0b451d63          	bne	a0,s4,220a <_printf_i+0x25c>
    2154:	557d                	li	a0,-1
    2156:	50b2                	lw	ra,44(sp)
    2158:	5422                	lw	s0,40(sp)
    215a:	5492                	lw	s1,36(sp)
    215c:	5902                	lw	s2,32(sp)
    215e:	49f2                	lw	s3,28(sp)
    2160:	4a62                	lw	s4,24(sp)
    2162:	4ad2                	lw	s5,20(sp)
    2164:	4b42                	lw	s6,16(sp)
    2166:	6145                	addi	sp,sp,48
    2168:	8082                	ret
    216a:	04d582a3          	sb	a3,69(a1)
    216e:	00001697          	auipc	a3,0x1
    2172:	3ce68693          	addi	a3,a3,974 # 353c <__func__.2878+0xac>
    2176:	400c                	lw	a1,0(s0)
    2178:	4308                	lw	a0,0(a4)
    217a:	0805f813          	andi	a6,a1,128
    217e:	411c                	lw	a5,0(a0)
    2180:	0511                	addi	a0,a0,4
    2182:	02080d63          	beqz	a6,21bc <_printf_i+0x20e>
    2186:	c308                	sw	a0,0(a4)
    2188:	0015f713          	andi	a4,a1,1
    218c:	c701                	beqz	a4,2194 <_printf_i+0x1e6>
    218e:	0205e593          	ori	a1,a1,32
    2192:	c00c                	sw	a1,0(s0)
    2194:	4741                	li	a4,16
    2196:	ffa1                	bnez	a5,20ee <_printf_i+0x140>
    2198:	400c                	lw	a1,0(s0)
    219a:	fdf5f593          	andi	a1,a1,-33
    219e:	c00c                	sw	a1,0(s0)
    21a0:	b7b9                	j	20ee <_printf_i+0x140>
    21a2:	419c                	lw	a5,0(a1)
    21a4:	0207e793          	ori	a5,a5,32
    21a8:	c19c                	sw	a5,0(a1)
    21aa:	07800793          	li	a5,120
    21ae:	04f402a3          	sb	a5,69(s0)
    21b2:	00001697          	auipc	a3,0x1
    21b6:	39e68693          	addi	a3,a3,926 # 3550 <__func__.2878+0xc0>
    21ba:	bf75                	j	2176 <_printf_i+0x1c8>
    21bc:	0405f813          	andi	a6,a1,64
    21c0:	c308                	sw	a0,0(a4)
    21c2:	fc0803e3          	beqz	a6,2188 <_printf_i+0x1da>
    21c6:	07c2                	slli	a5,a5,0x10
    21c8:	83c1                	srli	a5,a5,0x10
    21ca:	bf7d                	j	2188 <_printf_i+0x1da>
    21cc:	00001697          	auipc	a3,0x1
    21d0:	37068693          	addi	a3,a3,880 # 353c <__func__.2878+0xac>
    21d4:	4721                	li	a4,8
    21d6:	bf21                	j	20ee <_printf_i+0x140>
    21d8:	87ae                	mv	a5,a1
    21da:	b73d                	j	2108 <_printf_i+0x15a>
    21dc:	4194                	lw	a3,0(a1)
    21de:	431c                	lw	a5,0(a4)
    21e0:	49cc                	lw	a1,20(a1)
    21e2:	0806f813          	andi	a6,a3,128
    21e6:	00478513          	addi	a0,a5,4
    21ea:	00080663          	beqz	a6,21f6 <_printf_i+0x248>
    21ee:	c308                	sw	a0,0(a4)
    21f0:	439c                	lw	a5,0(a5)
    21f2:	c38c                	sw	a1,0(a5)
    21f4:	a039                	j	2202 <_printf_i+0x254>
    21f6:	c308                	sw	a0,0(a4)
    21f8:	0406f693          	andi	a3,a3,64
    21fc:	439c                	lw	a5,0(a5)
    21fe:	daf5                	beqz	a3,21f2 <_printf_i+0x244>
    2200:	a38e                	sh	a1,0(a5)
    2202:	00042823          	sw	zero,16(s0)
    2206:	8ab2                	mv	s5,a2
    2208:	bf2d                	j	2142 <_printf_i+0x194>
    220a:	4814                	lw	a3,16(s0)
    220c:	8656                	mv	a2,s5
    220e:	85ca                	mv	a1,s2
    2210:	8526                	mv	a0,s1
    2212:	9982                	jalr	s3
    2214:	f54500e3          	beq	a0,s4,2154 <_printf_i+0x1a6>
    2218:	401c                	lw	a5,0(s0)
    221a:	8b89                	andi	a5,a5,2
    221c:	e78d                	bnez	a5,2246 <_printf_i+0x298>
    221e:	47b2                	lw	a5,12(sp)
    2220:	4448                	lw	a0,12(s0)
    2222:	f2f55ae3          	bge	a0,a5,2156 <_printf_i+0x1a8>
    2226:	853e                	mv	a0,a5
    2228:	b73d                	j	2156 <_printf_i+0x1a8>
    222a:	4685                	li	a3,1
    222c:	8656                	mv	a2,s5
    222e:	85ca                	mv	a1,s2
    2230:	8526                	mv	a0,s1
    2232:	9982                	jalr	s3
    2234:	f36500e3          	beq	a0,s6,2154 <_printf_i+0x1a6>
    2238:	0a05                	addi	s4,s4,1
    223a:	445c                	lw	a5,12(s0)
    223c:	4732                	lw	a4,12(sp)
    223e:	8f99                	sub	a5,a5,a4
    2240:	fefa45e3          	blt	s4,a5,222a <_printf_i+0x27c>
    2244:	bfe9                	j	221e <_printf_i+0x270>
    2246:	4a01                	li	s4,0
    2248:	01940a93          	addi	s5,s0,25
    224c:	5b7d                	li	s6,-1
    224e:	b7f5                	j	223a <_printf_i+0x28c>

00002250 <_vsniprintf_r>:
    2250:	7119                	addi	sp,sp,-128
    2252:	dca2                	sw	s0,120(sp)
    2254:	de86                	sw	ra,124(sp)
    2256:	daa6                	sw	s1,116(sp)
    2258:	8432                	mv	s0,a2
    225a:	00065b63          	bgez	a2,2270 <_vsniprintf_r+0x20>
    225e:	08b00793          	li	a5,139
    2262:	c11c                	sw	a5,0(a0)
    2264:	557d                	li	a0,-1
    2266:	50f6                	lw	ra,124(sp)
    2268:	5466                	lw	s0,120(sp)
    226a:	54d6                	lw	s1,116(sp)
    226c:	6109                	addi	sp,sp,128
    226e:	8082                	ret
    2270:	8636                	mv	a2,a3
    2272:	20800693          	li	a3,520
    2276:	c42e                	sw	a1,8(sp)
    2278:	cc2e                	sw	a1,24(sp)
    227a:	82f4                	sh	a3,20(sp)
    227c:	4581                	li	a1,0
    227e:	c019                	beqz	s0,2284 <_vsniprintf_r+0x34>
    2280:	fff40593          	addi	a1,s0,-1
    2284:	57fd                	li	a5,-1
    2286:	c82e                	sw	a1,16(sp)
    2288:	ce2e                	sw	a1,28(sp)
    228a:	86ba                	mv	a3,a4
    228c:	002c                	addi	a1,sp,8
    228e:	83fc                	sh	a5,22(sp)
    2290:	84aa                	mv	s1,a0
    2292:	14f000ef          	jal	ra,2be0 <_svfiprintf_r>
    2296:	57fd                	li	a5,-1
    2298:	00f55563          	bge	a0,a5,22a2 <_vsniprintf_r+0x52>
    229c:	08b00793          	li	a5,139
    22a0:	c09c                	sw	a5,0(s1)
    22a2:	d071                	beqz	s0,2266 <_vsniprintf_r+0x16>
    22a4:	47a2                	lw	a5,8(sp)
    22a6:	00078023          	sb	zero,0(a5)
    22aa:	bf75                	j	2266 <_vsniprintf_r+0x16>

000022ac <vsniprintf>:
    22ac:	80c18793          	addi	a5,gp,-2036 # 2000009c <_impure_ptr>
    22b0:	8736                	mv	a4,a3
    22b2:	86b2                	mv	a3,a2
    22b4:	862e                	mv	a2,a1
    22b6:	85aa                	mv	a1,a0
    22b8:	4388                	lw	a0,0(a5)
    22ba:	bf59                	j	2250 <_vsniprintf_r>

000022bc <__swbuf_r>:
    22bc:	1101                	addi	sp,sp,-32
    22be:	cc22                	sw	s0,24(sp)
    22c0:	ca26                	sw	s1,20(sp)
    22c2:	c84a                	sw	s2,16(sp)
    22c4:	ce06                	sw	ra,28(sp)
    22c6:	c64e                	sw	s3,12(sp)
    22c8:	84aa                	mv	s1,a0
    22ca:	892e                	mv	s2,a1
    22cc:	8432                	mv	s0,a2
    22ce:	c501                	beqz	a0,22d6 <__swbuf_r+0x1a>
    22d0:	4d1c                	lw	a5,24(a0)
    22d2:	e391                	bnez	a5,22d6 <__swbuf_r+0x1a>
    22d4:	2eed                	jal	26ce <__sinit>
    22d6:	00001797          	auipc	a5,0x1
    22da:	2ae78793          	addi	a5,a5,686 # 3584 <__sf_fake_stdin>
    22de:	06f41763          	bne	s0,a5,234c <__swbuf_r+0x90>
    22e2:	40c0                	lw	s0,4(s1)
    22e4:	4c1c                	lw	a5,24(s0)
    22e6:	c41c                	sw	a5,8(s0)
    22e8:	245e                	lhu	a5,12(s0)
    22ea:	8ba1                	andi	a5,a5,8
    22ec:	c3c1                	beqz	a5,236c <__swbuf_r+0xb0>
    22ee:	481c                	lw	a5,16(s0)
    22f0:	cfb5                	beqz	a5,236c <__swbuf_r+0xb0>
    22f2:	481c                	lw	a5,16(s0)
    22f4:	4008                	lw	a0,0(s0)
    22f6:	0ff97993          	andi	s3,s2,255
    22fa:	0ff97913          	andi	s2,s2,255
    22fe:	8d1d                	sub	a0,a0,a5
    2300:	485c                	lw	a5,20(s0)
    2302:	00f54663          	blt	a0,a5,230e <__swbuf_r+0x52>
    2306:	85a2                	mv	a1,s0
    2308:	8526                	mv	a0,s1
    230a:	246d                	jal	25b4 <_fflush_r>
    230c:	e525                	bnez	a0,2374 <__swbuf_r+0xb8>
    230e:	441c                	lw	a5,8(s0)
    2310:	0505                	addi	a0,a0,1
    2312:	17fd                	addi	a5,a5,-1
    2314:	c41c                	sw	a5,8(s0)
    2316:	401c                	lw	a5,0(s0)
    2318:	00178713          	addi	a4,a5,1
    231c:	c018                	sw	a4,0(s0)
    231e:	01378023          	sb	s3,0(a5)
    2322:	485c                	lw	a5,20(s0)
    2324:	00a78863          	beq	a5,a0,2334 <__swbuf_r+0x78>
    2328:	245e                	lhu	a5,12(s0)
    232a:	8b85                	andi	a5,a5,1
    232c:	cb81                	beqz	a5,233c <__swbuf_r+0x80>
    232e:	47a9                	li	a5,10
    2330:	00f91663          	bne	s2,a5,233c <__swbuf_r+0x80>
    2334:	85a2                	mv	a1,s0
    2336:	8526                	mv	a0,s1
    2338:	2cb5                	jal	25b4 <_fflush_r>
    233a:	ed0d                	bnez	a0,2374 <__swbuf_r+0xb8>
    233c:	40f2                	lw	ra,28(sp)
    233e:	4462                	lw	s0,24(sp)
    2340:	854a                	mv	a0,s2
    2342:	44d2                	lw	s1,20(sp)
    2344:	4942                	lw	s2,16(sp)
    2346:	49b2                	lw	s3,12(sp)
    2348:	6105                	addi	sp,sp,32
    234a:	8082                	ret
    234c:	00001797          	auipc	a5,0x1
    2350:	25878793          	addi	a5,a5,600 # 35a4 <__sf_fake_stdout>
    2354:	00f41463          	bne	s0,a5,235c <__swbuf_r+0xa0>
    2358:	4480                	lw	s0,8(s1)
    235a:	b769                	j	22e4 <__swbuf_r+0x28>
    235c:	00001797          	auipc	a5,0x1
    2360:	20878793          	addi	a5,a5,520 # 3564 <__sf_fake_stderr>
    2364:	f8f410e3          	bne	s0,a5,22e4 <__swbuf_r+0x28>
    2368:	44c0                	lw	s0,12(s1)
    236a:	bfad                	j	22e4 <__swbuf_r+0x28>
    236c:	85a2                	mv	a1,s0
    236e:	8526                	mv	a0,s1
    2370:	2021                	jal	2378 <__swsetup_r>
    2372:	d141                	beqz	a0,22f2 <__swbuf_r+0x36>
    2374:	597d                	li	s2,-1
    2376:	b7d9                	j	233c <__swbuf_r+0x80>

00002378 <__swsetup_r>:
    2378:	1141                	addi	sp,sp,-16
    237a:	80c18793          	addi	a5,gp,-2036 # 2000009c <_impure_ptr>
    237e:	c226                	sw	s1,4(sp)
    2380:	4384                	lw	s1,0(a5)
    2382:	c422                	sw	s0,8(sp)
    2384:	c04a                	sw	s2,0(sp)
    2386:	c606                	sw	ra,12(sp)
    2388:	892a                	mv	s2,a0
    238a:	842e                	mv	s0,a1
    238c:	c489                	beqz	s1,2396 <__swsetup_r+0x1e>
    238e:	4c9c                	lw	a5,24(s1)
    2390:	e399                	bnez	a5,2396 <__swsetup_r+0x1e>
    2392:	8526                	mv	a0,s1
    2394:	2e2d                	jal	26ce <__sinit>
    2396:	00001797          	auipc	a5,0x1
    239a:	1ee78793          	addi	a5,a5,494 # 3584 <__sf_fake_stdin>
    239e:	02f41b63          	bne	s0,a5,23d4 <__swsetup_r+0x5c>
    23a2:	40c0                	lw	s0,4(s1)
    23a4:	00c41703          	lh	a4,12(s0)
    23a8:	01071793          	slli	a5,a4,0x10
    23ac:	83c1                	srli	a5,a5,0x10
    23ae:	0087f693          	andi	a3,a5,8
    23b2:	eaad                	bnez	a3,2424 <__swsetup_r+0xac>
    23b4:	0107f693          	andi	a3,a5,16
    23b8:	ee95                	bnez	a3,23f4 <__swsetup_r+0x7c>
    23ba:	47a5                	li	a5,9
    23bc:	00f92023          	sw	a5,0(s2)
    23c0:	04076713          	ori	a4,a4,64
    23c4:	a45a                	sh	a4,12(s0)
    23c6:	557d                	li	a0,-1
    23c8:	40b2                	lw	ra,12(sp)
    23ca:	4422                	lw	s0,8(sp)
    23cc:	4492                	lw	s1,4(sp)
    23ce:	4902                	lw	s2,0(sp)
    23d0:	0141                	addi	sp,sp,16
    23d2:	8082                	ret
    23d4:	00001797          	auipc	a5,0x1
    23d8:	1d078793          	addi	a5,a5,464 # 35a4 <__sf_fake_stdout>
    23dc:	00f41463          	bne	s0,a5,23e4 <__swsetup_r+0x6c>
    23e0:	4480                	lw	s0,8(s1)
    23e2:	b7c9                	j	23a4 <__swsetup_r+0x2c>
    23e4:	00001797          	auipc	a5,0x1
    23e8:	18078793          	addi	a5,a5,384 # 3564 <__sf_fake_stderr>
    23ec:	faf41ce3          	bne	s0,a5,23a4 <__swsetup_r+0x2c>
    23f0:	44c0                	lw	s0,12(s1)
    23f2:	bf4d                	j	23a4 <__swsetup_r+0x2c>
    23f4:	8b91                	andi	a5,a5,4
    23f6:	c39d                	beqz	a5,241c <__swsetup_r+0xa4>
    23f8:	584c                	lw	a1,52(s0)
    23fa:	c989                	beqz	a1,240c <__swsetup_r+0x94>
    23fc:	04440793          	addi	a5,s0,68
    2400:	00f58463          	beq	a1,a5,2408 <__swsetup_r+0x90>
    2404:	854a                	mv	a0,s2
    2406:	2b15                	jal	293a <_free_r>
    2408:	02042a23          	sw	zero,52(s0)
    240c:	245e                	lhu	a5,12(s0)
    240e:	00042223          	sw	zero,4(s0)
    2412:	fdb7f793          	andi	a5,a5,-37
    2416:	a45e                	sh	a5,12(s0)
    2418:	481c                	lw	a5,16(s0)
    241a:	c01c                	sw	a5,0(s0)
    241c:	245e                	lhu	a5,12(s0)
    241e:	0087e793          	ori	a5,a5,8
    2422:	a45e                	sh	a5,12(s0)
    2424:	481c                	lw	a5,16(s0)
    2426:	eb99                	bnez	a5,243c <__swsetup_r+0xc4>
    2428:	245e                	lhu	a5,12(s0)
    242a:	20000713          	li	a4,512
    242e:	2807f793          	andi	a5,a5,640
    2432:	00e78563          	beq	a5,a4,243c <__swsetup_r+0xc4>
    2436:	85a2                	mv	a1,s0
    2438:	854a                	mv	a0,s2
    243a:	29a1                	jal	2892 <__smakebuf_r>
    243c:	245e                	lhu	a5,12(s0)
    243e:	0017f713          	andi	a4,a5,1
    2442:	c31d                	beqz	a4,2468 <__swsetup_r+0xf0>
    2444:	485c                	lw	a5,20(s0)
    2446:	00042423          	sw	zero,8(s0)
    244a:	40f007b3          	neg	a5,a5
    244e:	cc1c                	sw	a5,24(s0)
    2450:	481c                	lw	a5,16(s0)
    2452:	4501                	li	a0,0
    2454:	fbb5                	bnez	a5,23c8 <__swsetup_r+0x50>
    2456:	00c41783          	lh	a5,12(s0)
    245a:	0807f713          	andi	a4,a5,128
    245e:	d72d                	beqz	a4,23c8 <__swsetup_r+0x50>
    2460:	0407e793          	ori	a5,a5,64
    2464:	a45e                	sh	a5,12(s0)
    2466:	b785                	j	23c6 <__swsetup_r+0x4e>
    2468:	8b89                	andi	a5,a5,2
    246a:	4701                	li	a4,0
    246c:	e391                	bnez	a5,2470 <__swsetup_r+0xf8>
    246e:	4858                	lw	a4,20(s0)
    2470:	c418                	sw	a4,8(s0)
    2472:	bff9                	j	2450 <__swsetup_r+0xd8>

00002474 <abort>:
    2474:	1141                	addi	sp,sp,-16
    2476:	4519                	li	a0,6
    2478:	c606                	sw	ra,12(sp)
    247a:	25b000ef          	jal	ra,2ed4 <raise>
    247e:	4505                	li	a0,1
    2480:	4a1000ef          	jal	ra,3120 <_exit>

00002484 <__sflush_r>:
    2484:	25de                	lhu	a5,12(a1)
    2486:	1101                	addi	sp,sp,-32
    2488:	cc22                	sw	s0,24(sp)
    248a:	ca26                	sw	s1,20(sp)
    248c:	ce06                	sw	ra,28(sp)
    248e:	c84a                	sw	s2,16(sp)
    2490:	c64e                	sw	s3,12(sp)
    2492:	0087f713          	andi	a4,a5,8
    2496:	84aa                	mv	s1,a0
    2498:	842e                	mv	s0,a1
    249a:	eb79                	bnez	a4,2570 <__sflush_r+0xec>
    249c:	41d8                	lw	a4,4(a1)
    249e:	00e04d63          	bgtz	a4,24b8 <__sflush_r+0x34>
    24a2:	41b8                	lw	a4,64(a1)
    24a4:	00e04a63          	bgtz	a4,24b8 <__sflush_r+0x34>
    24a8:	4501                	li	a0,0
    24aa:	40f2                	lw	ra,28(sp)
    24ac:	4462                	lw	s0,24(sp)
    24ae:	44d2                	lw	s1,20(sp)
    24b0:	4942                	lw	s2,16(sp)
    24b2:	49b2                	lw	s3,12(sp)
    24b4:	6105                	addi	sp,sp,32
    24b6:	8082                	ret
    24b8:	5458                	lw	a4,44(s0)
    24ba:	d77d                	beqz	a4,24a8 <__sflush_r+0x24>
    24bc:	0004a903          	lw	s2,0(s1)
    24c0:	01379693          	slli	a3,a5,0x13
    24c4:	0004a023          	sw	zero,0(s1)
    24c8:	0606db63          	bgez	a3,253e <__sflush_r+0xba>
    24cc:	4870                	lw	a2,84(s0)
    24ce:	245e                	lhu	a5,12(s0)
    24d0:	8b91                	andi	a5,a5,4
    24d2:	c799                	beqz	a5,24e0 <__sflush_r+0x5c>
    24d4:	405c                	lw	a5,4(s0)
    24d6:	8e1d                	sub	a2,a2,a5
    24d8:	585c                	lw	a5,52(s0)
    24da:	c399                	beqz	a5,24e0 <__sflush_r+0x5c>
    24dc:	403c                	lw	a5,64(s0)
    24de:	8e1d                	sub	a2,a2,a5
    24e0:	545c                	lw	a5,44(s0)
    24e2:	500c                	lw	a1,32(s0)
    24e4:	4681                	li	a3,0
    24e6:	8526                	mv	a0,s1
    24e8:	9782                	jalr	a5
    24ea:	57fd                	li	a5,-1
    24ec:	245a                	lhu	a4,12(s0)
    24ee:	00f51d63          	bne	a0,a5,2508 <__sflush_r+0x84>
    24f2:	4094                	lw	a3,0(s1)
    24f4:	47f5                	li	a5,29
    24f6:	06d7e863          	bltu	a5,a3,2566 <__sflush_r+0xe2>
    24fa:	204007b7          	lui	a5,0x20400
    24fe:	0785                	addi	a5,a5,1
    2500:	00d7d7b3          	srl	a5,a5,a3
    2504:	8b85                	andi	a5,a5,1
    2506:	c3a5                	beqz	a5,2566 <__sflush_r+0xe2>
    2508:	481c                	lw	a5,16(s0)
    250a:	00042223          	sw	zero,4(s0)
    250e:	c01c                	sw	a5,0(s0)
    2510:	01371793          	slli	a5,a4,0x13
    2514:	0007d863          	bgez	a5,2524 <__sflush_r+0xa0>
    2518:	57fd                	li	a5,-1
    251a:	00f51463          	bne	a0,a5,2522 <__sflush_r+0x9e>
    251e:	409c                	lw	a5,0(s1)
    2520:	e391                	bnez	a5,2524 <__sflush_r+0xa0>
    2522:	c868                	sw	a0,84(s0)
    2524:	584c                	lw	a1,52(s0)
    2526:	0124a023          	sw	s2,0(s1)
    252a:	ddbd                	beqz	a1,24a8 <__sflush_r+0x24>
    252c:	04440793          	addi	a5,s0,68
    2530:	00f58463          	beq	a1,a5,2538 <__sflush_r+0xb4>
    2534:	8526                	mv	a0,s1
    2536:	2111                	jal	293a <_free_r>
    2538:	02042a23          	sw	zero,52(s0)
    253c:	b7b5                	j	24a8 <__sflush_r+0x24>
    253e:	500c                	lw	a1,32(s0)
    2540:	4601                	li	a2,0
    2542:	4685                	li	a3,1
    2544:	8526                	mv	a0,s1
    2546:	9702                	jalr	a4
    2548:	57fd                	li	a5,-1
    254a:	862a                	mv	a2,a0
    254c:	f8f511e3          	bne	a0,a5,24ce <__sflush_r+0x4a>
    2550:	409c                	lw	a5,0(s1)
    2552:	dfb5                	beqz	a5,24ce <__sflush_r+0x4a>
    2554:	4775                	li	a4,29
    2556:	00e78563          	beq	a5,a4,2560 <__sflush_r+0xdc>
    255a:	4759                	li	a4,22
    255c:	04e79363          	bne	a5,a4,25a2 <__sflush_r+0x11e>
    2560:	0124a023          	sw	s2,0(s1)
    2564:	b791                	j	24a8 <__sflush_r+0x24>
    2566:	04076713          	ori	a4,a4,64
    256a:	a45a                	sh	a4,12(s0)
    256c:	557d                	li	a0,-1
    256e:	bf35                	j	24aa <__sflush_r+0x26>
    2570:	0105a983          	lw	s3,16(a1)
    2574:	f2098ae3          	beqz	s3,24a8 <__sflush_r+0x24>
    2578:	0005a903          	lw	s2,0(a1)
    257c:	8b8d                	andi	a5,a5,3
    257e:	0135a023          	sw	s3,0(a1)
    2582:	41390933          	sub	s2,s2,s3
    2586:	4701                	li	a4,0
    2588:	e391                	bnez	a5,258c <__sflush_r+0x108>
    258a:	49d8                	lw	a4,20(a1)
    258c:	c418                	sw	a4,8(s0)
    258e:	f1205de3          	blez	s2,24a8 <__sflush_r+0x24>
    2592:	541c                	lw	a5,40(s0)
    2594:	500c                	lw	a1,32(s0)
    2596:	86ca                	mv	a3,s2
    2598:	864e                	mv	a2,s3
    259a:	8526                	mv	a0,s1
    259c:	9782                	jalr	a5
    259e:	00a04763          	bgtz	a0,25ac <__sflush_r+0x128>
    25a2:	245e                	lhu	a5,12(s0)
    25a4:	0407e793          	ori	a5,a5,64
    25a8:	a45e                	sh	a5,12(s0)
    25aa:	b7c9                	j	256c <__sflush_r+0xe8>
    25ac:	99aa                	add	s3,s3,a0
    25ae:	40a90933          	sub	s2,s2,a0
    25b2:	bff1                	j	258e <__sflush_r+0x10a>

000025b4 <_fflush_r>:
    25b4:	499c                	lw	a5,16(a1)
    25b6:	cfb9                	beqz	a5,2614 <_fflush_r+0x60>
    25b8:	1101                	addi	sp,sp,-32
    25ba:	cc22                	sw	s0,24(sp)
    25bc:	ce06                	sw	ra,28(sp)
    25be:	842a                	mv	s0,a0
    25c0:	c511                	beqz	a0,25cc <_fflush_r+0x18>
    25c2:	4d1c                	lw	a5,24(a0)
    25c4:	e781                	bnez	a5,25cc <_fflush_r+0x18>
    25c6:	c62e                	sw	a1,12(sp)
    25c8:	2219                	jal	26ce <__sinit>
    25ca:	45b2                	lw	a1,12(sp)
    25cc:	00001797          	auipc	a5,0x1
    25d0:	fb878793          	addi	a5,a5,-72 # 3584 <__sf_fake_stdin>
    25d4:	00f59b63          	bne	a1,a5,25ea <_fflush_r+0x36>
    25d8:	404c                	lw	a1,4(s0)
    25da:	00c59783          	lh	a5,12(a1)
    25de:	c795                	beqz	a5,260a <_fflush_r+0x56>
    25e0:	8522                	mv	a0,s0
    25e2:	4462                	lw	s0,24(sp)
    25e4:	40f2                	lw	ra,28(sp)
    25e6:	6105                	addi	sp,sp,32
    25e8:	bd71                	j	2484 <__sflush_r>
    25ea:	00001797          	auipc	a5,0x1
    25ee:	fba78793          	addi	a5,a5,-70 # 35a4 <__sf_fake_stdout>
    25f2:	00f59463          	bne	a1,a5,25fa <_fflush_r+0x46>
    25f6:	440c                	lw	a1,8(s0)
    25f8:	b7cd                	j	25da <_fflush_r+0x26>
    25fa:	00001797          	auipc	a5,0x1
    25fe:	f6a78793          	addi	a5,a5,-150 # 3564 <__sf_fake_stderr>
    2602:	fcf59ce3          	bne	a1,a5,25da <_fflush_r+0x26>
    2606:	444c                	lw	a1,12(s0)
    2608:	bfc9                	j	25da <_fflush_r+0x26>
    260a:	40f2                	lw	ra,28(sp)
    260c:	4462                	lw	s0,24(sp)
    260e:	4501                	li	a0,0
    2610:	6105                	addi	sp,sp,32
    2612:	8082                	ret
    2614:	4501                	li	a0,0
    2616:	8082                	ret

00002618 <std>:
    2618:	1141                	addi	sp,sp,-16
    261a:	c422                	sw	s0,8(sp)
    261c:	c606                	sw	ra,12(sp)
    261e:	842a                	mv	s0,a0
    2620:	a54e                	sh	a1,12(a0)
    2622:	a572                	sh	a2,14(a0)
    2624:	00052023          	sw	zero,0(a0)
    2628:	00052223          	sw	zero,4(a0)
    262c:	00052423          	sw	zero,8(a0)
    2630:	06052223          	sw	zero,100(a0)
    2634:	00052823          	sw	zero,16(a0)
    2638:	00052a23          	sw	zero,20(a0)
    263c:	00052c23          	sw	zero,24(a0)
    2640:	4621                	li	a2,8
    2642:	4581                	li	a1,0
    2644:	05c50513          	addi	a0,a0,92
    2648:	bd9fd0ef          	jal	ra,220 <memset>
    264c:	00001797          	auipc	a5,0x1
    2650:	8be78793          	addi	a5,a5,-1858 # 2f0a <__sread>
    2654:	d05c                	sw	a5,36(s0)
    2656:	00001797          	auipc	a5,0x1
    265a:	8e078793          	addi	a5,a5,-1824 # 2f36 <__swrite>
    265e:	d41c                	sw	a5,40(s0)
    2660:	00001797          	auipc	a5,0x1
    2664:	91e78793          	addi	a5,a5,-1762 # 2f7e <__sseek>
    2668:	d45c                	sw	a5,44(s0)
    266a:	00001797          	auipc	a5,0x1
    266e:	94478793          	addi	a5,a5,-1724 # 2fae <__sclose>
    2672:	d000                	sw	s0,32(s0)
    2674:	d81c                	sw	a5,48(s0)
    2676:	40b2                	lw	ra,12(sp)
    2678:	4422                	lw	s0,8(sp)
    267a:	0141                	addi	sp,sp,16
    267c:	8082                	ret

0000267e <_cleanup_r>:
    267e:	00000597          	auipc	a1,0x0
    2682:	f3658593          	addi	a1,a1,-202 # 25b4 <_fflush_r>
    2686:	a2a9                	j	27d0 <_fwalk_reent>

00002688 <__sfmoreglue>:
    2688:	1141                	addi	sp,sp,-16
    268a:	c226                	sw	s1,4(sp)
    268c:	06800613          	li	a2,104
    2690:	fff58493          	addi	s1,a1,-1
    2694:	02c484b3          	mul	s1,s1,a2
    2698:	c04a                	sw	s2,0(sp)
    269a:	892e                	mv	s2,a1
    269c:	c422                	sw	s0,8(sp)
    269e:	c606                	sw	ra,12(sp)
    26a0:	07448593          	addi	a1,s1,116
    26a4:	2e3d                	jal	29e2 <_malloc_r>
    26a6:	842a                	mv	s0,a0
    26a8:	cd01                	beqz	a0,26c0 <__sfmoreglue+0x38>
    26aa:	00052023          	sw	zero,0(a0)
    26ae:	01252223          	sw	s2,4(a0)
    26b2:	0531                	addi	a0,a0,12
    26b4:	c408                	sw	a0,8(s0)
    26b6:	06848613          	addi	a2,s1,104
    26ba:	4581                	li	a1,0
    26bc:	b65fd0ef          	jal	ra,220 <memset>
    26c0:	8522                	mv	a0,s0
    26c2:	40b2                	lw	ra,12(sp)
    26c4:	4422                	lw	s0,8(sp)
    26c6:	4492                	lw	s1,4(sp)
    26c8:	4902                	lw	s2,0(sp)
    26ca:	0141                	addi	sp,sp,16
    26cc:	8082                	ret

000026ce <__sinit>:
    26ce:	4d1c                	lw	a5,24(a0)
    26d0:	e3ad                	bnez	a5,2732 <__sinit+0x64>
    26d2:	1141                	addi	sp,sp,-16
    26d4:	c606                	sw	ra,12(sp)
    26d6:	c422                	sw	s0,8(sp)
    26d8:	00000797          	auipc	a5,0x0
    26dc:	fa678793          	addi	a5,a5,-90 # 267e <_cleanup_r>
    26e0:	d51c                	sw	a5,40(a0)
    26e2:	81818793          	addi	a5,gp,-2024 # 200000a8 <_global_impure_ptr>
    26e6:	439c                	lw	a5,0(a5)
    26e8:	04052423          	sw	zero,72(a0)
    26ec:	04052623          	sw	zero,76(a0)
    26f0:	04052823          	sw	zero,80(a0)
    26f4:	00f51463          	bne	a0,a5,26fc <__sinit+0x2e>
    26f8:	4785                	li	a5,1
    26fa:	cd1c                	sw	a5,24(a0)
    26fc:	842a                	mv	s0,a0
    26fe:	281d                	jal	2734 <__sfp>
    2700:	c048                	sw	a0,4(s0)
    2702:	8522                	mv	a0,s0
    2704:	2805                	jal	2734 <__sfp>
    2706:	c408                	sw	a0,8(s0)
    2708:	8522                	mv	a0,s0
    270a:	202d                	jal	2734 <__sfp>
    270c:	c448                	sw	a0,12(s0)
    270e:	4048                	lw	a0,4(s0)
    2710:	4601                	li	a2,0
    2712:	4591                	li	a1,4
    2714:	3711                	jal	2618 <std>
    2716:	4408                	lw	a0,8(s0)
    2718:	4605                	li	a2,1
    271a:	45a5                	li	a1,9
    271c:	3df5                	jal	2618 <std>
    271e:	4448                	lw	a0,12(s0)
    2720:	4609                	li	a2,2
    2722:	45c9                	li	a1,18
    2724:	3dd5                	jal	2618 <std>
    2726:	4785                	li	a5,1
    2728:	cc1c                	sw	a5,24(s0)
    272a:	40b2                	lw	ra,12(sp)
    272c:	4422                	lw	s0,8(sp)
    272e:	0141                	addi	sp,sp,16
    2730:	8082                	ret
    2732:	8082                	ret

00002734 <__sfp>:
    2734:	1141                	addi	sp,sp,-16
    2736:	81818793          	addi	a5,gp,-2024 # 200000a8 <_global_impure_ptr>
    273a:	c226                	sw	s1,4(sp)
    273c:	4384                	lw	s1,0(a5)
    273e:	c04a                	sw	s2,0(sp)
    2740:	c606                	sw	ra,12(sp)
    2742:	4c9c                	lw	a5,24(s1)
    2744:	c422                	sw	s0,8(sp)
    2746:	892a                	mv	s2,a0
    2748:	e399                	bnez	a5,274e <__sfp+0x1a>
    274a:	8526                	mv	a0,s1
    274c:	3749                	jal	26ce <__sinit>
    274e:	04848493          	addi	s1,s1,72
    2752:	4480                	lw	s0,8(s1)
    2754:	40dc                	lw	a5,4(s1)
    2756:	17fd                	addi	a5,a5,-1
    2758:	0007d663          	bgez	a5,2764 <__sfp+0x30>
    275c:	409c                	lw	a5,0(s1)
    275e:	cfb9                	beqz	a5,27bc <__sfp+0x88>
    2760:	4084                	lw	s1,0(s1)
    2762:	bfc5                	j	2752 <__sfp+0x1e>
    2764:	00c41703          	lh	a4,12(s0)
    2768:	e739                	bnez	a4,27b6 <__sfp+0x82>
    276a:	77c1                	lui	a5,0xffff0
    276c:	0785                	addi	a5,a5,1
    276e:	06042223          	sw	zero,100(s0)
    2772:	00042023          	sw	zero,0(s0)
    2776:	00042223          	sw	zero,4(s0)
    277a:	00042423          	sw	zero,8(s0)
    277e:	c45c                	sw	a5,12(s0)
    2780:	00042823          	sw	zero,16(s0)
    2784:	00042a23          	sw	zero,20(s0)
    2788:	00042c23          	sw	zero,24(s0)
    278c:	4621                	li	a2,8
    278e:	4581                	li	a1,0
    2790:	05c40513          	addi	a0,s0,92
    2794:	a8dfd0ef          	jal	ra,220 <memset>
    2798:	02042a23          	sw	zero,52(s0)
    279c:	02042c23          	sw	zero,56(s0)
    27a0:	04042423          	sw	zero,72(s0)
    27a4:	04042623          	sw	zero,76(s0)
    27a8:	8522                	mv	a0,s0
    27aa:	40b2                	lw	ra,12(sp)
    27ac:	4422                	lw	s0,8(sp)
    27ae:	4492                	lw	s1,4(sp)
    27b0:	4902                	lw	s2,0(sp)
    27b2:	0141                	addi	sp,sp,16
    27b4:	8082                	ret
    27b6:	06840413          	addi	s0,s0,104
    27ba:	bf71                	j	2756 <__sfp+0x22>
    27bc:	4591                	li	a1,4
    27be:	854a                	mv	a0,s2
    27c0:	35e1                	jal	2688 <__sfmoreglue>
    27c2:	c088                	sw	a0,0(s1)
    27c4:	fd51                	bnez	a0,2760 <__sfp+0x2c>
    27c6:	47b1                	li	a5,12
    27c8:	00f92023          	sw	a5,0(s2)
    27cc:	4401                	li	s0,0
    27ce:	bfe9                	j	27a8 <__sfp+0x74>

000027d0 <_fwalk_reent>:
    27d0:	7179                	addi	sp,sp,-48
    27d2:	d422                	sw	s0,40(sp)
    27d4:	d04a                	sw	s2,32(sp)
    27d6:	cc52                	sw	s4,24(sp)
    27d8:	ca56                	sw	s5,20(sp)
    27da:	c85a                	sw	s6,16(sp)
    27dc:	c65e                	sw	s7,12(sp)
    27de:	d606                	sw	ra,44(sp)
    27e0:	d226                	sw	s1,36(sp)
    27e2:	ce4e                	sw	s3,28(sp)
    27e4:	8a2a                	mv	s4,a0
    27e6:	8aae                	mv	s5,a1
    27e8:	04850413          	addi	s0,a0,72
    27ec:	4901                	li	s2,0
    27ee:	4b05                	li	s6,1
    27f0:	5bfd                	li	s7,-1
    27f2:	ec09                	bnez	s0,280c <_fwalk_reent+0x3c>
    27f4:	50b2                	lw	ra,44(sp)
    27f6:	5422                	lw	s0,40(sp)
    27f8:	854a                	mv	a0,s2
    27fa:	5492                	lw	s1,36(sp)
    27fc:	5902                	lw	s2,32(sp)
    27fe:	49f2                	lw	s3,28(sp)
    2800:	4a62                	lw	s4,24(sp)
    2802:	4ad2                	lw	s5,20(sp)
    2804:	4b42                	lw	s6,16(sp)
    2806:	4bb2                	lw	s7,12(sp)
    2808:	6145                	addi	sp,sp,48
    280a:	8082                	ret
    280c:	4404                	lw	s1,8(s0)
    280e:	00442983          	lw	s3,4(s0)
    2812:	19fd                	addi	s3,s3,-1
    2814:	0009d463          	bgez	s3,281c <_fwalk_reent+0x4c>
    2818:	4000                	lw	s0,0(s0)
    281a:	bfe1                	j	27f2 <_fwalk_reent+0x22>
    281c:	24de                	lhu	a5,12(s1)
    281e:	00fb7b63          	bgeu	s6,a5,2834 <_fwalk_reent+0x64>
    2822:	00e49783          	lh	a5,14(s1)
    2826:	01778763          	beq	a5,s7,2834 <_fwalk_reent+0x64>
    282a:	85a6                	mv	a1,s1
    282c:	8552                	mv	a0,s4
    282e:	9a82                	jalr	s5
    2830:	00a96933          	or	s2,s2,a0
    2834:	06848493          	addi	s1,s1,104
    2838:	bfe9                	j	2812 <_fwalk_reent+0x42>

0000283a <__swhatbuf_r>:
    283a:	7119                	addi	sp,sp,-128
    283c:	daa6                	sw	s1,116(sp)
    283e:	84ae                	mv	s1,a1
    2840:	00e59583          	lh	a1,14(a1)
    2844:	dca2                	sw	s0,120(sp)
    2846:	de86                	sw	ra,124(sp)
    2848:	8432                	mv	s0,a2
    284a:	0005db63          	bgez	a1,2860 <__swhatbuf_r+0x26>
    284e:	24de                	lhu	a5,12(s1)
    2850:	0006a023          	sw	zero,0(a3)
    2854:	0807f793          	andi	a5,a5,128
    2858:	e785                	bnez	a5,2880 <__swhatbuf_r+0x46>
    285a:	40000793          	li	a5,1024
    285e:	a01d                	j	2884 <__swhatbuf_r+0x4a>
    2860:	0830                	addi	a2,sp,24
    2862:	c636                	sw	a3,12(sp)
    2864:	7a6000ef          	jal	ra,300a <_fstat_r>
    2868:	46b2                	lw	a3,12(sp)
    286a:	fe0542e3          	bltz	a0,284e <__swhatbuf_r+0x14>
    286e:	4772                	lw	a4,28(sp)
    2870:	67bd                	lui	a5,0xf
    2872:	8ff9                	and	a5,a5,a4
    2874:	7779                	lui	a4,0xffffe
    2876:	97ba                	add	a5,a5,a4
    2878:	0017b793          	seqz	a5,a5
    287c:	c29c                	sw	a5,0(a3)
    287e:	bff1                	j	285a <__swhatbuf_r+0x20>
    2880:	04000793          	li	a5,64
    2884:	c01c                	sw	a5,0(s0)
    2886:	50f6                	lw	ra,124(sp)
    2888:	5466                	lw	s0,120(sp)
    288a:	54d6                	lw	s1,116(sp)
    288c:	4501                	li	a0,0
    288e:	6109                	addi	sp,sp,128
    2890:	8082                	ret

00002892 <__smakebuf_r>:
    2892:	25de                	lhu	a5,12(a1)
    2894:	1101                	addi	sp,sp,-32
    2896:	cc22                	sw	s0,24(sp)
    2898:	ce06                	sw	ra,28(sp)
    289a:	ca26                	sw	s1,20(sp)
    289c:	c84a                	sw	s2,16(sp)
    289e:	8b89                	andi	a5,a5,2
    28a0:	842e                	mv	s0,a1
    28a2:	cf89                	beqz	a5,28bc <__smakebuf_r+0x2a>
    28a4:	04740793          	addi	a5,s0,71
    28a8:	c01c                	sw	a5,0(s0)
    28aa:	c81c                	sw	a5,16(s0)
    28ac:	4785                	li	a5,1
    28ae:	c85c                	sw	a5,20(s0)
    28b0:	40f2                	lw	ra,28(sp)
    28b2:	4462                	lw	s0,24(sp)
    28b4:	44d2                	lw	s1,20(sp)
    28b6:	4942                	lw	s2,16(sp)
    28b8:	6105                	addi	sp,sp,32
    28ba:	8082                	ret
    28bc:	0074                	addi	a3,sp,12
    28be:	0030                	addi	a2,sp,8
    28c0:	84aa                	mv	s1,a0
    28c2:	3fa5                	jal	283a <__swhatbuf_r>
    28c4:	45a2                	lw	a1,8(sp)
    28c6:	892a                	mv	s2,a0
    28c8:	8526                	mv	a0,s1
    28ca:	2a21                	jal	29e2 <_malloc_r>
    28cc:	e919                	bnez	a0,28e2 <__smakebuf_r+0x50>
    28ce:	00c41783          	lh	a5,12(s0)
    28d2:	2007f713          	andi	a4,a5,512
    28d6:	ff69                	bnez	a4,28b0 <__smakebuf_r+0x1e>
    28d8:	9bf1                	andi	a5,a5,-4
    28da:	0027e793          	ori	a5,a5,2
    28de:	a45e                	sh	a5,12(s0)
    28e0:	b7d1                	j	28a4 <__smakebuf_r+0x12>
    28e2:	00000797          	auipc	a5,0x0
    28e6:	d9c78793          	addi	a5,a5,-612 # 267e <_cleanup_r>
    28ea:	d49c                	sw	a5,40(s1)
    28ec:	245e                	lhu	a5,12(s0)
    28ee:	c008                	sw	a0,0(s0)
    28f0:	c808                	sw	a0,16(s0)
    28f2:	0807e793          	ori	a5,a5,128
    28f6:	a45e                	sh	a5,12(s0)
    28f8:	47a2                	lw	a5,8(sp)
    28fa:	c85c                	sw	a5,20(s0)
    28fc:	47b2                	lw	a5,12(sp)
    28fe:	cf81                	beqz	a5,2916 <__smakebuf_r+0x84>
    2900:	00e41583          	lh	a1,14(s0)
    2904:	8526                	mv	a0,s1
    2906:	72e000ef          	jal	ra,3034 <_isatty_r>
    290a:	c511                	beqz	a0,2916 <__smakebuf_r+0x84>
    290c:	245e                	lhu	a5,12(s0)
    290e:	9bf1                	andi	a5,a5,-4
    2910:	0017e793          	ori	a5,a5,1
    2914:	a45e                	sh	a5,12(s0)
    2916:	245e                	lhu	a5,12(s0)
    2918:	00f96933          	or	s2,s2,a5
    291c:	01241623          	sh	s2,12(s0)
    2920:	bf41                	j	28b0 <__smakebuf_r+0x1e>

00002922 <memchr>:
    2922:	0ff5f593          	andi	a1,a1,255
    2926:	962a                	add	a2,a2,a0
    2928:	00c51463          	bne	a0,a2,2930 <memchr+0xe>
    292c:	4501                	li	a0,0
    292e:	8082                	ret
    2930:	211c                	lbu	a5,0(a0)
    2932:	feb78ee3          	beq	a5,a1,292e <memchr+0xc>
    2936:	0505                	addi	a0,a0,1
    2938:	bfc5                	j	2928 <memchr+0x6>

0000293a <_free_r>:
    293a:	c1dd                	beqz	a1,29e0 <_free_r+0xa6>
    293c:	ffc5a783          	lw	a5,-4(a1)
    2940:	1141                	addi	sp,sp,-16
    2942:	c422                	sw	s0,8(sp)
    2944:	c606                	sw	ra,12(sp)
    2946:	c226                	sw	s1,4(sp)
    2948:	ffc58413          	addi	s0,a1,-4
    294c:	0007d363          	bgez	a5,2952 <_free_r+0x18>
    2950:	943e                	add	s0,s0,a5
    2952:	84aa                	mv	s1,a0
    2954:	734000ef          	jal	ra,3088 <__malloc_lock>
    2958:	83418793          	addi	a5,gp,-1996 # 200000c4 <__malloc_free_list>
    295c:	439c                	lw	a5,0(a5)
    295e:	ef81                	bnez	a5,2976 <_free_r+0x3c>
    2960:	00042223          	sw	zero,4(s0)
    2964:	8281aa23          	sw	s0,-1996(gp) # 200000c4 <__malloc_free_list>
    2968:	4422                	lw	s0,8(sp)
    296a:	40b2                	lw	ra,12(sp)
    296c:	8526                	mv	a0,s1
    296e:	4492                	lw	s1,4(sp)
    2970:	0141                	addi	sp,sp,16
    2972:	7180006f          	j	308a <__malloc_unlock>
    2976:	00f47e63          	bgeu	s0,a5,2992 <_free_r+0x58>
    297a:	4014                	lw	a3,0(s0)
    297c:	00d40733          	add	a4,s0,a3
    2980:	00e79663          	bne	a5,a4,298c <_free_r+0x52>
    2984:	4398                	lw	a4,0(a5)
    2986:	43dc                	lw	a5,4(a5)
    2988:	9736                	add	a4,a4,a3
    298a:	c018                	sw	a4,0(s0)
    298c:	c05c                	sw	a5,4(s0)
    298e:	bfd9                	j	2964 <_free_r+0x2a>
    2990:	87ba                	mv	a5,a4
    2992:	43d8                	lw	a4,4(a5)
    2994:	c319                	beqz	a4,299a <_free_r+0x60>
    2996:	fee47de3          	bgeu	s0,a4,2990 <_free_r+0x56>
    299a:	4394                	lw	a3,0(a5)
    299c:	00d78633          	add	a2,a5,a3
    29a0:	00861f63          	bne	a2,s0,29be <_free_r+0x84>
    29a4:	4010                	lw	a2,0(s0)
    29a6:	96b2                	add	a3,a3,a2
    29a8:	c394                	sw	a3,0(a5)
    29aa:	00d78633          	add	a2,a5,a3
    29ae:	fac71de3          	bne	a4,a2,2968 <_free_r+0x2e>
    29b2:	4310                	lw	a2,0(a4)
    29b4:	4358                	lw	a4,4(a4)
    29b6:	96b2                	add	a3,a3,a2
    29b8:	c394                	sw	a3,0(a5)
    29ba:	c3d8                	sw	a4,4(a5)
    29bc:	b775                	j	2968 <_free_r+0x2e>
    29be:	00c47563          	bgeu	s0,a2,29c8 <_free_r+0x8e>
    29c2:	47b1                	li	a5,12
    29c4:	c09c                	sw	a5,0(s1)
    29c6:	b74d                	j	2968 <_free_r+0x2e>
    29c8:	4010                	lw	a2,0(s0)
    29ca:	00c406b3          	add	a3,s0,a2
    29ce:	00d71663          	bne	a4,a3,29da <_free_r+0xa0>
    29d2:	4314                	lw	a3,0(a4)
    29d4:	4358                	lw	a4,4(a4)
    29d6:	96b2                	add	a3,a3,a2
    29d8:	c014                	sw	a3,0(s0)
    29da:	c058                	sw	a4,4(s0)
    29dc:	c3c0                	sw	s0,4(a5)
    29de:	b769                	j	2968 <_free_r+0x2e>
    29e0:	8082                	ret

000029e2 <_malloc_r>:
    29e2:	1101                	addi	sp,sp,-32
    29e4:	ca26                	sw	s1,20(sp)
    29e6:	00358493          	addi	s1,a1,3
    29ea:	98f1                	andi	s1,s1,-4
    29ec:	ce06                	sw	ra,28(sp)
    29ee:	cc22                	sw	s0,24(sp)
    29f0:	c84a                	sw	s2,16(sp)
    29f2:	c64e                	sw	s3,12(sp)
    29f4:	04a1                	addi	s1,s1,8
    29f6:	47b1                	li	a5,12
    29f8:	04f4f163          	bgeu	s1,a5,2a3a <_malloc_r+0x58>
    29fc:	44b1                	li	s1,12
    29fe:	04b4e063          	bltu	s1,a1,2a3e <_malloc_r+0x5c>
    2a02:	892a                	mv	s2,a0
    2a04:	2551                	jal	3088 <__malloc_lock>
    2a06:	83418793          	addi	a5,gp,-1996 # 200000c4 <__malloc_free_list>
    2a0a:	4398                	lw	a4,0(a5)
    2a0c:	843a                	mv	s0,a4
    2a0e:	e031                	bnez	s0,2a52 <_malloc_r+0x70>
    2a10:	83818793          	addi	a5,gp,-1992 # 200000c8 <__malloc_sbrk_start>
    2a14:	439c                	lw	a5,0(a5)
    2a16:	e791                	bnez	a5,2a22 <_malloc_r+0x40>
    2a18:	4581                	li	a1,0
    2a1a:	854a                	mv	a0,s2
    2a1c:	2135                	jal	2e48 <_sbrk_r>
    2a1e:	82a1ac23          	sw	a0,-1992(gp) # 200000c8 <__malloc_sbrk_start>
    2a22:	85a6                	mv	a1,s1
    2a24:	854a                	mv	a0,s2
    2a26:	210d                	jal	2e48 <_sbrk_r>
    2a28:	59fd                	li	s3,-1
    2a2a:	07351763          	bne	a0,s3,2a98 <_malloc_r+0xb6>
    2a2e:	47b1                	li	a5,12
    2a30:	00f92023          	sw	a5,0(s2)
    2a34:	854a                	mv	a0,s2
    2a36:	2d91                	jal	308a <__malloc_unlock>
    2a38:	a029                	j	2a42 <_malloc_r+0x60>
    2a3a:	fc04d2e3          	bgez	s1,29fe <_malloc_r+0x1c>
    2a3e:	47b1                	li	a5,12
    2a40:	c11c                	sw	a5,0(a0)
    2a42:	4501                	li	a0,0
    2a44:	40f2                	lw	ra,28(sp)
    2a46:	4462                	lw	s0,24(sp)
    2a48:	44d2                	lw	s1,20(sp)
    2a4a:	4942                	lw	s2,16(sp)
    2a4c:	49b2                	lw	s3,12(sp)
    2a4e:	6105                	addi	sp,sp,32
    2a50:	8082                	ret
    2a52:	401c                	lw	a5,0(s0)
    2a54:	8f85                	sub	a5,a5,s1
    2a56:	0207ce63          	bltz	a5,2a92 <_malloc_r+0xb0>
    2a5a:	46ad                	li	a3,11
    2a5c:	00f6f663          	bgeu	a3,a5,2a68 <_malloc_r+0x86>
    2a60:	c01c                	sw	a5,0(s0)
    2a62:	943e                	add	s0,s0,a5
    2a64:	c004                	sw	s1,0(s0)
    2a66:	a031                	j	2a72 <_malloc_r+0x90>
    2a68:	405c                	lw	a5,4(s0)
    2a6a:	02871263          	bne	a4,s0,2a8e <_malloc_r+0xac>
    2a6e:	82f1aa23          	sw	a5,-1996(gp) # 200000c4 <__malloc_free_list>
    2a72:	854a                	mv	a0,s2
    2a74:	2d19                	jal	308a <__malloc_unlock>
    2a76:	00b40513          	addi	a0,s0,11
    2a7a:	00440793          	addi	a5,s0,4
    2a7e:	9961                	andi	a0,a0,-8
    2a80:	40f50733          	sub	a4,a0,a5
    2a84:	d361                	beqz	a4,2a44 <_malloc_r+0x62>
    2a86:	943a                	add	s0,s0,a4
    2a88:	8f89                	sub	a5,a5,a0
    2a8a:	c01c                	sw	a5,0(s0)
    2a8c:	bf65                	j	2a44 <_malloc_r+0x62>
    2a8e:	c35c                	sw	a5,4(a4)
    2a90:	b7cd                	j	2a72 <_malloc_r+0x90>
    2a92:	8722                	mv	a4,s0
    2a94:	4040                	lw	s0,4(s0)
    2a96:	bfa5                	j	2a0e <_malloc_r+0x2c>
    2a98:	00350413          	addi	s0,a0,3
    2a9c:	9871                	andi	s0,s0,-4
    2a9e:	fc8503e3          	beq	a0,s0,2a64 <_malloc_r+0x82>
    2aa2:	40a405b3          	sub	a1,s0,a0
    2aa6:	854a                	mv	a0,s2
    2aa8:	2645                	jal	2e48 <_sbrk_r>
    2aaa:	fb351de3          	bne	a0,s3,2a64 <_malloc_r+0x82>
    2aae:	b741                	j	2a2e <_malloc_r+0x4c>

00002ab0 <_realloc_r>:
    2ab0:	e199                	bnez	a1,2ab6 <_realloc_r+0x6>
    2ab2:	85b2                	mv	a1,a2
    2ab4:	b73d                	j	29e2 <_malloc_r>
    2ab6:	1101                	addi	sp,sp,-32
    2ab8:	cc22                	sw	s0,24(sp)
    2aba:	ce06                	sw	ra,28(sp)
    2abc:	ca26                	sw	s1,20(sp)
    2abe:	c84a                	sw	s2,16(sp)
    2ac0:	c64e                	sw	s3,12(sp)
    2ac2:	8432                	mv	s0,a2
    2ac4:	ea19                	bnez	a2,2ada <_realloc_r+0x2a>
    2ac6:	3d95                	jal	293a <_free_r>
    2ac8:	4901                	li	s2,0
    2aca:	40f2                	lw	ra,28(sp)
    2acc:	4462                	lw	s0,24(sp)
    2ace:	854a                	mv	a0,s2
    2ad0:	44d2                	lw	s1,20(sp)
    2ad2:	4942                	lw	s2,16(sp)
    2ad4:	49b2                	lw	s3,12(sp)
    2ad6:	6105                	addi	sp,sp,32
    2ad8:	8082                	ret
    2ada:	84ae                	mv	s1,a1
    2adc:	89aa                	mv	s3,a0
    2ade:	237d                	jal	308c <_malloc_usable_size_r>
    2ae0:	8926                	mv	s2,s1
    2ae2:	fe8574e3          	bgeu	a0,s0,2aca <_realloc_r+0x1a>
    2ae6:	85a2                	mv	a1,s0
    2ae8:	854e                	mv	a0,s3
    2aea:	3de5                	jal	29e2 <_malloc_r>
    2aec:	892a                	mv	s2,a0
    2aee:	dd71                	beqz	a0,2aca <_realloc_r+0x1a>
    2af0:	85a6                	mv	a1,s1
    2af2:	8622                	mv	a2,s0
    2af4:	fc7fe0ef          	jal	ra,1aba <memcpy>
    2af8:	85a6                	mv	a1,s1
    2afa:	854e                	mv	a0,s3
    2afc:	3d3d                	jal	293a <_free_r>
    2afe:	b7f1                	j	2aca <_realloc_r+0x1a>

00002b00 <__ssputs_r>:
    2b00:	1101                	addi	sp,sp,-32
    2b02:	c84a                	sw	s2,16(sp)
    2b04:	0085a903          	lw	s2,8(a1)
    2b08:	cc22                	sw	s0,24(sp)
    2b0a:	c452                	sw	s4,8(sp)
    2b0c:	c05a                	sw	s6,0(sp)
    2b0e:	ce06                	sw	ra,28(sp)
    2b10:	ca26                	sw	s1,20(sp)
    2b12:	c64e                	sw	s3,12(sp)
    2b14:	c256                	sw	s5,4(sp)
    2b16:	842e                	mv	s0,a1
    2b18:	8b32                	mv	s6,a2
    2b1a:	8a36                	mv	s4,a3
    2b1c:	0926e863          	bltu	a3,s2,2bac <__ssputs_r+0xac>
    2b20:	25de                	lhu	a5,12(a1)
    2b22:	4807f713          	andi	a4,a5,1152
    2b26:	c349                	beqz	a4,2ba8 <__ssputs_r+0xa8>
    2b28:	4004                	lw	s1,0(s0)
    2b2a:	498c                	lw	a1,16(a1)
    2b2c:	4858                	lw	a4,20(s0)
    2b2e:	8aaa                	mv	s5,a0
    2b30:	40b489b3          	sub	s3,s1,a1
    2b34:	448d                	li	s1,3
    2b36:	02e484b3          	mul	s1,s1,a4
    2b3a:	4709                	li	a4,2
    2b3c:	02e4c4b3          	div	s1,s1,a4
    2b40:	00168713          	addi	a4,a3,1
    2b44:	974e                	add	a4,a4,s3
    2b46:	00e4f363          	bgeu	s1,a4,2b4c <__ssputs_r+0x4c>
    2b4a:	84ba                	mv	s1,a4
    2b4c:	4007f793          	andi	a5,a5,1024
    2b50:	cfb5                	beqz	a5,2bcc <__ssputs_r+0xcc>
    2b52:	85a6                	mv	a1,s1
    2b54:	8556                	mv	a0,s5
    2b56:	3571                	jal	29e2 <_malloc_r>
    2b58:	892a                	mv	s2,a0
    2b5a:	e11d                	bnez	a0,2b80 <__ssputs_r+0x80>
    2b5c:	47b1                	li	a5,12
    2b5e:	00faa023          	sw	a5,0(s5)
    2b62:	245e                	lhu	a5,12(s0)
    2b64:	557d                	li	a0,-1
    2b66:	0407e793          	ori	a5,a5,64
    2b6a:	a45e                	sh	a5,12(s0)
    2b6c:	40f2                	lw	ra,28(sp)
    2b6e:	4462                	lw	s0,24(sp)
    2b70:	44d2                	lw	s1,20(sp)
    2b72:	4942                	lw	s2,16(sp)
    2b74:	49b2                	lw	s3,12(sp)
    2b76:	4a22                	lw	s4,8(sp)
    2b78:	4a92                	lw	s5,4(sp)
    2b7a:	4b02                	lw	s6,0(sp)
    2b7c:	6105                	addi	sp,sp,32
    2b7e:	8082                	ret
    2b80:	480c                	lw	a1,16(s0)
    2b82:	864e                	mv	a2,s3
    2b84:	f37fe0ef          	jal	ra,1aba <memcpy>
    2b88:	245e                	lhu	a5,12(s0)
    2b8a:	b7f7f793          	andi	a5,a5,-1153
    2b8e:	0807e793          	ori	a5,a5,128
    2b92:	a45e                	sh	a5,12(s0)
    2b94:	01242823          	sw	s2,16(s0)
    2b98:	c844                	sw	s1,20(s0)
    2b9a:	994e                	add	s2,s2,s3
    2b9c:	413484b3          	sub	s1,s1,s3
    2ba0:	01242023          	sw	s2,0(s0)
    2ba4:	c404                	sw	s1,8(s0)
    2ba6:	8952                	mv	s2,s4
    2ba8:	012a7363          	bgeu	s4,s2,2bae <__ssputs_r+0xae>
    2bac:	8952                	mv	s2,s4
    2bae:	4008                	lw	a0,0(s0)
    2bb0:	864a                	mv	a2,s2
    2bb2:	85da                	mv	a1,s6
    2bb4:	fb9fe0ef          	jal	ra,1b6c <memmove>
    2bb8:	441c                	lw	a5,8(s0)
    2bba:	4501                	li	a0,0
    2bbc:	412787b3          	sub	a5,a5,s2
    2bc0:	c41c                	sw	a5,8(s0)
    2bc2:	401c                	lw	a5,0(s0)
    2bc4:	993e                	add	s2,s2,a5
    2bc6:	01242023          	sw	s2,0(s0)
    2bca:	b74d                	j	2b6c <__ssputs_r+0x6c>
    2bcc:	8626                	mv	a2,s1
    2bce:	8556                	mv	a0,s5
    2bd0:	35c5                	jal	2ab0 <_realloc_r>
    2bd2:	892a                	mv	s2,a0
    2bd4:	f161                	bnez	a0,2b94 <__ssputs_r+0x94>
    2bd6:	480c                	lw	a1,16(s0)
    2bd8:	8556                	mv	a0,s5
    2bda:	d61ff0ef          	jal	ra,293a <_free_r>
    2bde:	bfbd                	j	2b5c <__ssputs_r+0x5c>

00002be0 <_svfiprintf_r>:
    2be0:	25de                	lhu	a5,12(a1)
    2be2:	7171                	addi	sp,sp,-176
    2be4:	d326                	sw	s1,164(sp)
    2be6:	d14a                	sw	s2,160(sp)
    2be8:	cf4e                	sw	s3,156(sp)
    2bea:	d706                	sw	ra,172(sp)
    2bec:	d522                	sw	s0,168(sp)
    2bee:	cd52                	sw	s4,152(sp)
    2bf0:	cb56                	sw	s5,148(sp)
    2bf2:	c95a                	sw	s6,144(sp)
    2bf4:	c75e                	sw	s7,140(sp)
    2bf6:	c562                	sw	s8,136(sp)
    2bf8:	c366                	sw	s9,132(sp)
    2bfa:	0807f793          	andi	a5,a5,128
    2bfe:	89aa                	mv	s3,a0
    2c00:	892e                	mv	s2,a1
    2c02:	84b2                	mv	s1,a2
    2c04:	c3b1                	beqz	a5,2c48 <_svfiprintf_r+0x68>
    2c06:	499c                	lw	a5,16(a1)
    2c08:	e3a1                	bnez	a5,2c48 <_svfiprintf_r+0x68>
    2c0a:	04000593          	li	a1,64
    2c0e:	c636                	sw	a3,12(sp)
    2c10:	3bc9                	jal	29e2 <_malloc_r>
    2c12:	00a92023          	sw	a0,0(s2)
    2c16:	00a92823          	sw	a0,16(s2)
    2c1a:	46b2                	lw	a3,12(sp)
    2c1c:	e115                	bnez	a0,2c40 <_svfiprintf_r+0x60>
    2c1e:	47b1                	li	a5,12
    2c20:	00f9a023          	sw	a5,0(s3)
    2c24:	557d                	li	a0,-1
    2c26:	50ba                	lw	ra,172(sp)
    2c28:	542a                	lw	s0,168(sp)
    2c2a:	549a                	lw	s1,164(sp)
    2c2c:	590a                	lw	s2,160(sp)
    2c2e:	49fa                	lw	s3,156(sp)
    2c30:	4a6a                	lw	s4,152(sp)
    2c32:	4ada                	lw	s5,148(sp)
    2c34:	4b4a                	lw	s6,144(sp)
    2c36:	4bba                	lw	s7,140(sp)
    2c38:	4c2a                	lw	s8,136(sp)
    2c3a:	4c9a                	lw	s9,132(sp)
    2c3c:	614d                	addi	sp,sp,176
    2c3e:	8082                	ret
    2c40:	04000793          	li	a5,64
    2c44:	00f92a23          	sw	a5,20(s2)
    2c48:	02000793          	li	a5,32
    2c4c:	02f10ca3          	sb	a5,57(sp)
    2c50:	03000793          	li	a5,48
    2c54:	da02                	sw	zero,52(sp)
    2c56:	02f10d23          	sb	a5,58(sp)
    2c5a:	ce36                	sw	a3,28(sp)
    2c5c:	02500b93          	li	s7,37
    2c60:	00001a97          	auipc	s5,0x1
    2c64:	8c8a8a93          	addi	s5,s5,-1848 # 3528 <__func__.2878+0x98>
    2c68:	4c05                	li	s8,1
    2c6a:	4b29                	li	s6,10
    2c6c:	8426                	mv	s0,s1
    2c6e:	201c                	lbu	a5,0(s0)
    2c70:	c399                	beqz	a5,2c76 <_svfiprintf_r+0x96>
    2c72:	09779863          	bne	a5,s7,2d02 <_svfiprintf_r+0x122>
    2c76:	40940cb3          	sub	s9,s0,s1
    2c7a:	000c8d63          	beqz	s9,2c94 <_svfiprintf_r+0xb4>
    2c7e:	86e6                	mv	a3,s9
    2c80:	8626                	mv	a2,s1
    2c82:	85ca                	mv	a1,s2
    2c84:	854e                	mv	a0,s3
    2c86:	3dad                	jal	2b00 <__ssputs_r>
    2c88:	57fd                	li	a5,-1
    2c8a:	18f50b63          	beq	a0,a5,2e20 <_svfiprintf_r+0x240>
    2c8e:	56d2                	lw	a3,52(sp)
    2c90:	96e6                	add	a3,a3,s9
    2c92:	da36                	sw	a3,52(sp)
    2c94:	201c                	lbu	a5,0(s0)
    2c96:	18078563          	beqz	a5,2e20 <_svfiprintf_r+0x240>
    2c9a:	57fd                	li	a5,-1
    2c9c:	00140493          	addi	s1,s0,1
    2ca0:	d002                	sw	zero,32(sp)
    2ca2:	d602                	sw	zero,44(sp)
    2ca4:	d23e                	sw	a5,36(sp)
    2ca6:	d402                	sw	zero,40(sp)
    2ca8:	060101a3          	sb	zero,99(sp)
    2cac:	dc82                	sw	zero,120(sp)
    2cae:	208c                	lbu	a1,0(s1)
    2cb0:	4615                	li	a2,5
    2cb2:	8556                	mv	a0,s5
    2cb4:	c6fff0ef          	jal	ra,2922 <memchr>
    2cb8:	00148413          	addi	s0,s1,1
    2cbc:	5782                	lw	a5,32(sp)
    2cbe:	e521                	bnez	a0,2d06 <_svfiprintf_r+0x126>
    2cc0:	0107f713          	andi	a4,a5,16
    2cc4:	c709                	beqz	a4,2cce <_svfiprintf_r+0xee>
    2cc6:	02000713          	li	a4,32
    2cca:	06e101a3          	sb	a4,99(sp)
    2cce:	0087f713          	andi	a4,a5,8
    2cd2:	c709                	beqz	a4,2cdc <_svfiprintf_r+0xfc>
    2cd4:	02b00713          	li	a4,43
    2cd8:	06e101a3          	sb	a4,99(sp)
    2cdc:	2094                	lbu	a3,0(s1)
    2cde:	02a00713          	li	a4,42
    2ce2:	02e68a63          	beq	a3,a4,2d16 <_svfiprintf_r+0x136>
    2ce6:	57b2                	lw	a5,44(sp)
    2ce8:	8426                	mv	s0,s1
    2cea:	4681                	li	a3,0
    2cec:	4625                	li	a2,9
    2cee:	2018                	lbu	a4,0(s0)
    2cf0:	00140593          	addi	a1,s0,1
    2cf4:	fd070713          	addi	a4,a4,-48 # ffffdfd0 <_eusrstack+0xdffedfd0>
    2cf8:	06e67263          	bgeu	a2,a4,2d5c <_svfiprintf_r+0x17c>
    2cfc:	c68d                	beqz	a3,2d26 <_svfiprintf_r+0x146>
    2cfe:	d63e                	sw	a5,44(sp)
    2d00:	a01d                	j	2d26 <_svfiprintf_r+0x146>
    2d02:	0405                	addi	s0,s0,1
    2d04:	b7ad                	j	2c6e <_svfiprintf_r+0x8e>
    2d06:	41550533          	sub	a0,a0,s5
    2d0a:	00ac1533          	sll	a0,s8,a0
    2d0e:	8fc9                	or	a5,a5,a0
    2d10:	d03e                	sw	a5,32(sp)
    2d12:	84a2                	mv	s1,s0
    2d14:	bf69                	j	2cae <_svfiprintf_r+0xce>
    2d16:	4772                	lw	a4,28(sp)
    2d18:	00470693          	addi	a3,a4,4
    2d1c:	4318                	lw	a4,0(a4)
    2d1e:	ce36                	sw	a3,28(sp)
    2d20:	02074763          	bltz	a4,2d4e <_svfiprintf_r+0x16e>
    2d24:	d63a                	sw	a4,44(sp)
    2d26:	2018                	lbu	a4,0(s0)
    2d28:	02e00793          	li	a5,46
    2d2c:	04f71d63          	bne	a4,a5,2d86 <_svfiprintf_r+0x1a6>
    2d30:	3018                	lbu	a4,1(s0)
    2d32:	02a00793          	li	a5,42
    2d36:	02f71b63          	bne	a4,a5,2d6c <_svfiprintf_r+0x18c>
    2d3a:	47f2                	lw	a5,28(sp)
    2d3c:	0409                	addi	s0,s0,2
    2d3e:	00478713          	addi	a4,a5,4
    2d42:	439c                	lw	a5,0(a5)
    2d44:	ce3a                	sw	a4,28(sp)
    2d46:	0207c163          	bltz	a5,2d68 <_svfiprintf_r+0x188>
    2d4a:	d23e                	sw	a5,36(sp)
    2d4c:	a82d                	j	2d86 <_svfiprintf_r+0x1a6>
    2d4e:	40e00733          	neg	a4,a4
    2d52:	0027e793          	ori	a5,a5,2
    2d56:	d63a                	sw	a4,44(sp)
    2d58:	d03e                	sw	a5,32(sp)
    2d5a:	b7f1                	j	2d26 <_svfiprintf_r+0x146>
    2d5c:	036787b3          	mul	a5,a5,s6
    2d60:	4685                	li	a3,1
    2d62:	842e                	mv	s0,a1
    2d64:	97ba                	add	a5,a5,a4
    2d66:	b761                	j	2cee <_svfiprintf_r+0x10e>
    2d68:	57fd                	li	a5,-1
    2d6a:	b7c5                	j	2d4a <_svfiprintf_r+0x16a>
    2d6c:	0405                	addi	s0,s0,1
    2d6e:	d202                	sw	zero,36(sp)
    2d70:	4681                	li	a3,0
    2d72:	4781                	li	a5,0
    2d74:	4625                	li	a2,9
    2d76:	2018                	lbu	a4,0(s0)
    2d78:	00140593          	addi	a1,s0,1
    2d7c:	fd070713          	addi	a4,a4,-48
    2d80:	06e67663          	bgeu	a2,a4,2dec <_svfiprintf_r+0x20c>
    2d84:	f2f9                	bnez	a3,2d4a <_svfiprintf_r+0x16a>
    2d86:	200c                	lbu	a1,0(s0)
    2d88:	460d                	li	a2,3
    2d8a:	00000517          	auipc	a0,0x0
    2d8e:	7a650513          	addi	a0,a0,1958 # 3530 <__func__.2878+0xa0>
    2d92:	b91ff0ef          	jal	ra,2922 <memchr>
    2d96:	cd11                	beqz	a0,2db2 <_svfiprintf_r+0x1d2>
    2d98:	00000797          	auipc	a5,0x0
    2d9c:	79878793          	addi	a5,a5,1944 # 3530 <__func__.2878+0xa0>
    2da0:	8d1d                	sub	a0,a0,a5
    2da2:	04000793          	li	a5,64
    2da6:	00a797b3          	sll	a5,a5,a0
    2daa:	5502                	lw	a0,32(sp)
    2dac:	0405                	addi	s0,s0,1
    2dae:	8d5d                	or	a0,a0,a5
    2db0:	d02a                	sw	a0,32(sp)
    2db2:	200c                	lbu	a1,0(s0)
    2db4:	4619                	li	a2,6
    2db6:	00000517          	auipc	a0,0x0
    2dba:	77e50513          	addi	a0,a0,1918 # 3534 <__func__.2878+0xa4>
    2dbe:	00140493          	addi	s1,s0,1
    2dc2:	02b10c23          	sb	a1,56(sp)
    2dc6:	b5dff0ef          	jal	ra,2922 <memchr>
    2dca:	c525                	beqz	a0,2e32 <_svfiprintf_r+0x252>
    2dcc:	ffffd797          	auipc	a5,0xffffd
    2dd0:	23478793          	addi	a5,a5,564 # 0 <_sinit>
    2dd4:	e795                	bnez	a5,2e00 <_svfiprintf_r+0x220>
    2dd6:	5702                	lw	a4,32(sp)
    2dd8:	47f2                	lw	a5,28(sp)
    2dda:	10077713          	andi	a4,a4,256
    2dde:	cf09                	beqz	a4,2df8 <_svfiprintf_r+0x218>
    2de0:	0791                	addi	a5,a5,4
    2de2:	ce3e                	sw	a5,28(sp)
    2de4:	57d2                	lw	a5,52(sp)
    2de6:	97d2                	add	a5,a5,s4
    2de8:	da3e                	sw	a5,52(sp)
    2dea:	b549                	j	2c6c <_svfiprintf_r+0x8c>
    2dec:	036787b3          	mul	a5,a5,s6
    2df0:	4685                	li	a3,1
    2df2:	842e                	mv	s0,a1
    2df4:	97ba                	add	a5,a5,a4
    2df6:	b741                	j	2d76 <_svfiprintf_r+0x196>
    2df8:	079d                	addi	a5,a5,7
    2dfa:	9be1                	andi	a5,a5,-8
    2dfc:	07a1                	addi	a5,a5,8
    2dfe:	b7d5                	j	2de2 <_svfiprintf_r+0x202>
    2e00:	0878                	addi	a4,sp,28
    2e02:	00000697          	auipc	a3,0x0
    2e06:	cfe68693          	addi	a3,a3,-770 # 2b00 <__ssputs_r>
    2e0a:	864a                	mv	a2,s2
    2e0c:	100c                	addi	a1,sp,32
    2e0e:	854e                	mv	a0,s3
    2e10:	00000097          	auipc	ra,0x0
    2e14:	000000e7          	jalr	zero # 0 <_sinit>
    2e18:	57fd                	li	a5,-1
    2e1a:	8a2a                	mv	s4,a0
    2e1c:	fcf514e3          	bne	a0,a5,2de4 <_svfiprintf_r+0x204>
    2e20:	00c95783          	lhu	a5,12(s2)
    2e24:	557d                	li	a0,-1
    2e26:	0407f793          	andi	a5,a5,64
    2e2a:	de079ee3          	bnez	a5,2c26 <_svfiprintf_r+0x46>
    2e2e:	5552                	lw	a0,52(sp)
    2e30:	bbdd                	j	2c26 <_svfiprintf_r+0x46>
    2e32:	0878                	addi	a4,sp,28
    2e34:	00000697          	auipc	a3,0x0
    2e38:	ccc68693          	addi	a3,a3,-820 # 2b00 <__ssputs_r>
    2e3c:	864a                	mv	a2,s2
    2e3e:	100c                	addi	a1,sp,32
    2e40:	854e                	mv	a0,s3
    2e42:	96cff0ef          	jal	ra,1fae <_printf_i>
    2e46:	bfc9                	j	2e18 <_svfiprintf_r+0x238>

00002e48 <_sbrk_r>:
    2e48:	1141                	addi	sp,sp,-16
    2e4a:	c422                	sw	s0,8(sp)
    2e4c:	842a                	mv	s0,a0
    2e4e:	852e                	mv	a0,a1
    2e50:	4401ae23          	sw	zero,1116(gp) # 20000cec <errno>
    2e54:	c606                	sw	ra,12(sp)
    2e56:	a7efe0ef          	jal	ra,10d4 <_sbrk>
    2e5a:	57fd                	li	a5,-1
    2e5c:	00f51763          	bne	a0,a5,2e6a <_sbrk_r+0x22>
    2e60:	45c18793          	addi	a5,gp,1116 # 20000cec <errno>
    2e64:	439c                	lw	a5,0(a5)
    2e66:	c391                	beqz	a5,2e6a <_sbrk_r+0x22>
    2e68:	c01c                	sw	a5,0(s0)
    2e6a:	40b2                	lw	ra,12(sp)
    2e6c:	4422                	lw	s0,8(sp)
    2e6e:	0141                	addi	sp,sp,16
    2e70:	8082                	ret

00002e72 <_raise_r>:
    2e72:	47fd                	li	a5,31
    2e74:	00b7f663          	bgeu	a5,a1,2e80 <_raise_r+0xe>
    2e78:	47d9                	li	a5,22
    2e7a:	c11c                	sw	a5,0(a0)
    2e7c:	557d                	li	a0,-1
    2e7e:	8082                	ret
    2e80:	417c                	lw	a5,68(a0)
    2e82:	1101                	addi	sp,sp,-32
    2e84:	cc22                	sw	s0,24(sp)
    2e86:	ce06                	sw	ra,28(sp)
    2e88:	862e                	mv	a2,a1
    2e8a:	842a                	mv	s0,a0
    2e8c:	c791                	beqz	a5,2e98 <_raise_r+0x26>
    2e8e:	00259713          	slli	a4,a1,0x2
    2e92:	97ba                	add	a5,a5,a4
    2e94:	4398                	lw	a4,0(a5)
    2e96:	eb19                	bnez	a4,2eac <_raise_r+0x3a>
    2e98:	8522                	mv	a0,s0
    2e9a:	c632                	sw	a2,12(sp)
    2e9c:	20b5                	jal	2f08 <_getpid_r>
    2e9e:	85aa                	mv	a1,a0
    2ea0:	8522                	mv	a0,s0
    2ea2:	4462                	lw	s0,24(sp)
    2ea4:	4632                	lw	a2,12(sp)
    2ea6:	40f2                	lw	ra,28(sp)
    2ea8:	6105                	addi	sp,sp,32
    2eaa:	a815                	j	2ede <_kill_r>
    2eac:	4685                	li	a3,1
    2eae:	4501                	li	a0,0
    2eb0:	00d70863          	beq	a4,a3,2ec0 <_raise_r+0x4e>
    2eb4:	56fd                	li	a3,-1
    2eb6:	00d71963          	bne	a4,a3,2ec8 <_raise_r+0x56>
    2eba:	47d9                	li	a5,22
    2ebc:	c01c                	sw	a5,0(s0)
    2ebe:	4505                	li	a0,1
    2ec0:	40f2                	lw	ra,28(sp)
    2ec2:	4462                	lw	s0,24(sp)
    2ec4:	6105                	addi	sp,sp,32
    2ec6:	8082                	ret
    2ec8:	852e                	mv	a0,a1
    2eca:	0007a023          	sw	zero,0(a5)
    2ece:	9702                	jalr	a4
    2ed0:	4501                	li	a0,0
    2ed2:	b7fd                	j	2ec0 <_raise_r+0x4e>

00002ed4 <raise>:
    2ed4:	80c18793          	addi	a5,gp,-2036 # 2000009c <_impure_ptr>
    2ed8:	85aa                	mv	a1,a0
    2eda:	4388                	lw	a0,0(a5)
    2edc:	bf59                	j	2e72 <_raise_r>

00002ede <_kill_r>:
    2ede:	1141                	addi	sp,sp,-16
    2ee0:	c422                	sw	s0,8(sp)
    2ee2:	842a                	mv	s0,a0
    2ee4:	852e                	mv	a0,a1
    2ee6:	85b2                	mv	a1,a2
    2ee8:	4401ae23          	sw	zero,1116(gp) # 20000cec <errno>
    2eec:	c606                	sw	ra,12(sp)
    2eee:	2439                	jal	30fc <_kill>
    2ef0:	57fd                	li	a5,-1
    2ef2:	00f51763          	bne	a0,a5,2f00 <_kill_r+0x22>
    2ef6:	45c18793          	addi	a5,gp,1116 # 20000cec <errno>
    2efa:	439c                	lw	a5,0(a5)
    2efc:	c391                	beqz	a5,2f00 <_kill_r+0x22>
    2efe:	c01c                	sw	a5,0(s0)
    2f00:	40b2                	lw	ra,12(sp)
    2f02:	4422                	lw	s0,8(sp)
    2f04:	0141                	addi	sp,sp,16
    2f06:	8082                	ret

00002f08 <_getpid_r>:
    2f08:	aaf1                	j	30e4 <_getpid>

00002f0a <__sread>:
    2f0a:	1141                	addi	sp,sp,-16
    2f0c:	c422                	sw	s0,8(sp)
    2f0e:	842e                	mv	s0,a1
    2f10:	00e59583          	lh	a1,14(a1)
    2f14:	c606                	sw	ra,12(sp)
    2f16:	2269                	jal	30a0 <_read_r>
    2f18:	00054963          	bltz	a0,2f2a <__sread+0x20>
    2f1c:	487c                	lw	a5,84(s0)
    2f1e:	97aa                	add	a5,a5,a0
    2f20:	c87c                	sw	a5,84(s0)
    2f22:	40b2                	lw	ra,12(sp)
    2f24:	4422                	lw	s0,8(sp)
    2f26:	0141                	addi	sp,sp,16
    2f28:	8082                	ret
    2f2a:	245e                	lhu	a5,12(s0)
    2f2c:	777d                	lui	a4,0xfffff
    2f2e:	177d                	addi	a4,a4,-1
    2f30:	8ff9                	and	a5,a5,a4
    2f32:	a45e                	sh	a5,12(s0)
    2f34:	b7fd                	j	2f22 <__sread+0x18>

00002f36 <__swrite>:
    2f36:	25de                	lhu	a5,12(a1)
    2f38:	1101                	addi	sp,sp,-32
    2f3a:	cc22                	sw	s0,24(sp)
    2f3c:	ca26                	sw	s1,20(sp)
    2f3e:	c84a                	sw	s2,16(sp)
    2f40:	c64e                	sw	s3,12(sp)
    2f42:	ce06                	sw	ra,28(sp)
    2f44:	1007f793          	andi	a5,a5,256
    2f48:	84aa                	mv	s1,a0
    2f4a:	842e                	mv	s0,a1
    2f4c:	8932                	mv	s2,a2
    2f4e:	89b6                	mv	s3,a3
    2f50:	c791                	beqz	a5,2f5c <__swrite+0x26>
    2f52:	00e59583          	lh	a1,14(a1)
    2f56:	4689                	li	a3,2
    2f58:	4601                	li	a2,0
    2f5a:	2209                	jal	305c <_lseek_r>
    2f5c:	245e                	lhu	a5,12(s0)
    2f5e:	777d                	lui	a4,0xfffff
    2f60:	177d                	addi	a4,a4,-1
    2f62:	8ff9                	and	a5,a5,a4
    2f64:	a45e                	sh	a5,12(s0)
    2f66:	00e41583          	lh	a1,14(s0)
    2f6a:	4462                	lw	s0,24(sp)
    2f6c:	40f2                	lw	ra,28(sp)
    2f6e:	86ce                	mv	a3,s3
    2f70:	864a                	mv	a2,s2
    2f72:	49b2                	lw	s3,12(sp)
    2f74:	4942                	lw	s2,16(sp)
    2f76:	8526                	mv	a0,s1
    2f78:	44d2                	lw	s1,20(sp)
    2f7a:	6105                	addi	sp,sp,32
    2f7c:	a825                	j	2fb4 <_write_r>

00002f7e <__sseek>:
    2f7e:	1141                	addi	sp,sp,-16
    2f80:	c422                	sw	s0,8(sp)
    2f82:	842e                	mv	s0,a1
    2f84:	00e59583          	lh	a1,14(a1)
    2f88:	c606                	sw	ra,12(sp)
    2f8a:	28c9                	jal	305c <_lseek_r>
    2f8c:	57fd                	li	a5,-1
    2f8e:	245a                	lhu	a4,12(s0)
    2f90:	00f51a63          	bne	a0,a5,2fa4 <__sseek+0x26>
    2f94:	77fd                	lui	a5,0xfffff
    2f96:	17fd                	addi	a5,a5,-1
    2f98:	8ff9                	and	a5,a5,a4
    2f9a:	a45e                	sh	a5,12(s0)
    2f9c:	40b2                	lw	ra,12(sp)
    2f9e:	4422                	lw	s0,8(sp)
    2fa0:	0141                	addi	sp,sp,16
    2fa2:	8082                	ret
    2fa4:	6785                	lui	a5,0x1
    2fa6:	8fd9                	or	a5,a5,a4
    2fa8:	a45e                	sh	a5,12(s0)
    2faa:	c868                	sw	a0,84(s0)
    2fac:	bfc5                	j	2f9c <__sseek+0x1e>

00002fae <__sclose>:
    2fae:	00e59583          	lh	a1,14(a1)
    2fb2:	a805                	j	2fe2 <_close_r>

00002fb4 <_write_r>:
    2fb4:	1141                	addi	sp,sp,-16
    2fb6:	c422                	sw	s0,8(sp)
    2fb8:	842a                	mv	s0,a0
    2fba:	852e                	mv	a0,a1
    2fbc:	85b2                	mv	a1,a2
    2fbe:	8636                	mv	a2,a3
    2fc0:	4401ae23          	sw	zero,1116(gp) # 20000cec <errno>
    2fc4:	c606                	sw	ra,12(sp)
    2fc6:	8d4fe0ef          	jal	ra,109a <_write>
    2fca:	57fd                	li	a5,-1
    2fcc:	00f51763          	bne	a0,a5,2fda <_write_r+0x26>
    2fd0:	45c18793          	addi	a5,gp,1116 # 20000cec <errno>
    2fd4:	439c                	lw	a5,0(a5)
    2fd6:	c391                	beqz	a5,2fda <_write_r+0x26>
    2fd8:	c01c                	sw	a5,0(s0)
    2fda:	40b2                	lw	ra,12(sp)
    2fdc:	4422                	lw	s0,8(sp)
    2fde:	0141                	addi	sp,sp,16
    2fe0:	8082                	ret

00002fe2 <_close_r>:
    2fe2:	1141                	addi	sp,sp,-16
    2fe4:	c422                	sw	s0,8(sp)
    2fe6:	842a                	mv	s0,a0
    2fe8:	852e                	mv	a0,a1
    2fea:	4401ae23          	sw	zero,1116(gp) # 20000cec <errno>
    2fee:	c606                	sw	ra,12(sp)
    2ff0:	28f1                	jal	30cc <_close>
    2ff2:	57fd                	li	a5,-1
    2ff4:	00f51763          	bne	a0,a5,3002 <_close_r+0x20>
    2ff8:	45c18793          	addi	a5,gp,1116 # 20000cec <errno>
    2ffc:	439c                	lw	a5,0(a5)
    2ffe:	c391                	beqz	a5,3002 <_close_r+0x20>
    3000:	c01c                	sw	a5,0(s0)
    3002:	40b2                	lw	ra,12(sp)
    3004:	4422                	lw	s0,8(sp)
    3006:	0141                	addi	sp,sp,16
    3008:	8082                	ret

0000300a <_fstat_r>:
    300a:	1141                	addi	sp,sp,-16
    300c:	c422                	sw	s0,8(sp)
    300e:	842a                	mv	s0,a0
    3010:	852e                	mv	a0,a1
    3012:	85b2                	mv	a1,a2
    3014:	4401ae23          	sw	zero,1116(gp) # 20000cec <errno>
    3018:	c606                	sw	ra,12(sp)
    301a:	287d                	jal	30d8 <_fstat>
    301c:	57fd                	li	a5,-1
    301e:	00f51763          	bne	a0,a5,302c <_fstat_r+0x22>
    3022:	45c18793          	addi	a5,gp,1116 # 20000cec <errno>
    3026:	439c                	lw	a5,0(a5)
    3028:	c391                	beqz	a5,302c <_fstat_r+0x22>
    302a:	c01c                	sw	a5,0(s0)
    302c:	40b2                	lw	ra,12(sp)
    302e:	4422                	lw	s0,8(sp)
    3030:	0141                	addi	sp,sp,16
    3032:	8082                	ret

00003034 <_isatty_r>:
    3034:	1141                	addi	sp,sp,-16
    3036:	c422                	sw	s0,8(sp)
    3038:	842a                	mv	s0,a0
    303a:	852e                	mv	a0,a1
    303c:	4401ae23          	sw	zero,1116(gp) # 20000cec <errno>
    3040:	c606                	sw	ra,12(sp)
    3042:	207d                	jal	30f0 <_isatty>
    3044:	57fd                	li	a5,-1
    3046:	00f51763          	bne	a0,a5,3054 <_isatty_r+0x20>
    304a:	45c18793          	addi	a5,gp,1116 # 20000cec <errno>
    304e:	439c                	lw	a5,0(a5)
    3050:	c391                	beqz	a5,3054 <_isatty_r+0x20>
    3052:	c01c                	sw	a5,0(s0)
    3054:	40b2                	lw	ra,12(sp)
    3056:	4422                	lw	s0,8(sp)
    3058:	0141                	addi	sp,sp,16
    305a:	8082                	ret

0000305c <_lseek_r>:
    305c:	1141                	addi	sp,sp,-16
    305e:	c422                	sw	s0,8(sp)
    3060:	842a                	mv	s0,a0
    3062:	852e                	mv	a0,a1
    3064:	85b2                	mv	a1,a2
    3066:	8636                	mv	a2,a3
    3068:	4401ae23          	sw	zero,1116(gp) # 20000cec <errno>
    306c:	c606                	sw	ra,12(sp)
    306e:	2869                	jal	3108 <_lseek>
    3070:	57fd                	li	a5,-1
    3072:	00f51763          	bne	a0,a5,3080 <_lseek_r+0x24>
    3076:	45c18793          	addi	a5,gp,1116 # 20000cec <errno>
    307a:	439c                	lw	a5,0(a5)
    307c:	c391                	beqz	a5,3080 <_lseek_r+0x24>
    307e:	c01c                	sw	a5,0(s0)
    3080:	40b2                	lw	ra,12(sp)
    3082:	4422                	lw	s0,8(sp)
    3084:	0141                	addi	sp,sp,16
    3086:	8082                	ret

00003088 <__malloc_lock>:
    3088:	8082                	ret

0000308a <__malloc_unlock>:
    308a:	8082                	ret

0000308c <_malloc_usable_size_r>:
    308c:	ffc5a783          	lw	a5,-4(a1)
    3090:	ffc78513          	addi	a0,a5,-4 # ffc <Delay_Init+0x18>
    3094:	0007d563          	bgez	a5,309e <_malloc_usable_size_r+0x12>
    3098:	95aa                	add	a1,a1,a0
    309a:	419c                	lw	a5,0(a1)
    309c:	953e                	add	a0,a0,a5
    309e:	8082                	ret

000030a0 <_read_r>:
    30a0:	1141                	addi	sp,sp,-16
    30a2:	c422                	sw	s0,8(sp)
    30a4:	842a                	mv	s0,a0
    30a6:	852e                	mv	a0,a1
    30a8:	85b2                	mv	a1,a2
    30aa:	8636                	mv	a2,a3
    30ac:	4401ae23          	sw	zero,1116(gp) # 20000cec <errno>
    30b0:	c606                	sw	ra,12(sp)
    30b2:	208d                	jal	3114 <_read>
    30b4:	57fd                	li	a5,-1
    30b6:	00f51763          	bne	a0,a5,30c4 <_read_r+0x24>
    30ba:	45c18793          	addi	a5,gp,1116 # 20000cec <errno>
    30be:	439c                	lw	a5,0(a5)
    30c0:	c391                	beqz	a5,30c4 <_read_r+0x24>
    30c2:	c01c                	sw	a5,0(s0)
    30c4:	40b2                	lw	ra,12(sp)
    30c6:	4422                	lw	s0,8(sp)
    30c8:	0141                	addi	sp,sp,16
    30ca:	8082                	ret

000030cc <_close>:
    30cc:	05800793          	li	a5,88
    30d0:	44f1ae23          	sw	a5,1116(gp) # 20000cec <errno>
    30d4:	557d                	li	a0,-1
    30d6:	8082                	ret

000030d8 <_fstat>:
    30d8:	05800793          	li	a5,88
    30dc:	44f1ae23          	sw	a5,1116(gp) # 20000cec <errno>
    30e0:	557d                	li	a0,-1
    30e2:	8082                	ret

000030e4 <_getpid>:
    30e4:	05800793          	li	a5,88
    30e8:	44f1ae23          	sw	a5,1116(gp) # 20000cec <errno>
    30ec:	557d                	li	a0,-1
    30ee:	8082                	ret

000030f0 <_isatty>:
    30f0:	05800793          	li	a5,88
    30f4:	44f1ae23          	sw	a5,1116(gp) # 20000cec <errno>
    30f8:	4501                	li	a0,0
    30fa:	8082                	ret

000030fc <_kill>:
    30fc:	05800793          	li	a5,88
    3100:	44f1ae23          	sw	a5,1116(gp) # 20000cec <errno>
    3104:	557d                	li	a0,-1
    3106:	8082                	ret

00003108 <_lseek>:
    3108:	05800793          	li	a5,88
    310c:	44f1ae23          	sw	a5,1116(gp) # 20000cec <errno>
    3110:	557d                	li	a0,-1
    3112:	8082                	ret

00003114 <_read>:
    3114:	05800793          	li	a5,88
    3118:	44f1ae23          	sw	a5,1116(gp) # 20000cec <errno>
    311c:	557d                	li	a0,-1
    311e:	8082                	ret

00003120 <_exit>:
    3120:	a001                	j	3120 <_exit>
    3122:	0000                	unimp
    3124:	7325                	lui	t1,0xfffe9
    3126:	0000                	unimp
    3128:	3d3d                	jal	2f66 <__swrite+0x30>
    312a:	203d                	jal	3158 <_exit+0x38>
    312c:	6145                	addi	sp,sp,48
    312e:	42207973          	csrrci	s2,0x422,0
    3132:	6c746f6f          	jal	t5,49ff8 <_data_lma+0x46a34>
    3136:	6564616f          	jal	sp,4978c <_data_lma+0x461c8>
    313a:	2072                	lhu	a2,6(s0)
    313c:	72617453          	0x72617453
    3140:	2074                	lbu	a3,6(s0)
    3142:	3d3d                	jal	2f80 <__sseek+0x2>
    3144:	0d3d                	addi	s10,s10,15
    3146:	000a                	c.slli	zero,0x2
    3148:	6c46                	flw	fs8,80(sp)
    314a:	6761                	lui	a4,0x18
    314c:	203a                	lhu	a4,2(s0)
    314e:	7830                	flw	fa2,112(s0)
    3150:	3025                	jal	2978 <_free_r+0x3e>
    3152:	5838                	lw	a4,112(s0)
    3154:	202c                	lbu	a1,2(s0)
    3156:	6556                	flw	fa0,84(sp)
    3158:	7372                	flw	ft6,60(sp)
    315a:	6f69                	lui	t5,0x1a
    315c:	3a6e                	lhu	a1,54(a2)
    315e:	3020                	lbu	s0,3(s0)
    3160:	2578                	lbu	a4,14(a0)
    3162:	3830                	lbu	a2,19(s0)
    3164:	2c58                	lbu	a4,28(s0)
    3166:	4420                	lw	s0,72(s0)
    3168:	7461                	lui	s0,0xffff8
    316a:	3a65                	jal	2b22 <__ssputs_r+0x22>
    316c:	3020                	lbu	s0,3(s0)
    316e:	2578                	lbu	a4,14(a0)
    3170:	3830                	lbu	a2,19(s0)
    3172:	0d58                	addi	a4,sp,660
    3174:	000a                	c.slli	zero,0x2
    3176:	0000                	unimp
    3178:	6c46                	flw	fs8,80(sp)
    317a:	6761                	lui	a4,0x18
    317c:	423d                	li	tp,15
    317e:	2c544f4f          	0x2c544f4f
    3182:	7720                	flw	fs0,104(a4)
    3184:	6961                	lui	s2,0x18
    3186:	6974                	flw	fa3,84(a0)
    3188:	676e                	flw	fa4,216(sp)
    318a:	6620                	flw	fs0,72(a2)
    318c:	6620726f          	jal	tp,a7ee <_data_lma+0x722a>
    3190:	7269                	lui	tp,0xffffa
    3192:	776d                	lui	a4,0xffffb
    3194:	7261                	lui	tp,0xffff8
    3196:	2e65                	jal	354e <__func__.2878+0xbe>
    3198:	2e2e                	lhu	a1,26(a2)
    319a:	0a0d                	addi	s4,s4,3
    319c:	0000                	unimp
    319e:	0000                	unimp
    31a0:	63656843          	fmadd.d	fa6,fa0,fs6,fa2,unknown
    31a4:	676e696b          	0x676e696b
    31a8:	4120                	lw	s0,64(a0)
    31aa:	5050                	lw	a2,36(s0)
    31ac:	7620                	flw	fs0,104(a2)
    31ae:	6c61                	lui	s8,0x18
    31b0:	6469                	lui	s0,0x1a
    31b2:	7469                	lui	s0,0xffffa
    31b4:	2e79                	jal	3552 <__func__.2878+0xc2>
    31b6:	2e2e                	lhu	a1,26(a2)
    31b8:	0a0d                	addi	s4,s4,3
    31ba:	0000                	unimp
    31bc:	5041                	c.li	zero,-16
    31be:	2050                	lbu	a2,4(s0)
    31c0:	64726f57          	0x64726f57
    31c4:	3a30                	lbu	a2,19(a2)
    31c6:	3020                	lbu	s0,3(s0)
    31c8:	2578                	lbu	a4,14(a0)
    31ca:	3830                	lbu	a2,19(s0)
    31cc:	2c58                	lbu	a4,28(s0)
    31ce:	4520                	lw	s0,72(a0)
    31d0:	746e                	flw	fs0,248(sp)
    31d2:	7972                	flw	fs2,60(sp)
    31d4:	203a                	lhu	a4,2(s0)
    31d6:	7830                	flw	fa2,112(s0)
    31d8:	3025                	jal	2a00 <_malloc_r+0x1e>
    31da:	5838                	lw	a4,112(s0)
    31dc:	0a0d                	addi	s4,s4,3
    31de:	0000                	unimp
    31e0:	6e49                	lui	t3,0x12
    31e2:	6176                	flw	ft2,92(sp)
    31e4:	696c                	flw	fa1,84(a0)
    31e6:	2064                	lbu	s1,6(s0)
    31e8:	6e65                	lui	t3,0x19
    31ea:	7274                	flw	fa3,100(a2)
    31ec:	2079                	jal	327a <_exit+0x15a>
    31ee:	6461                	lui	s0,0x18
    31f0:	7264                	flw	fs1,100(a2)
    31f2:	7365                	lui	t1,0xffff9
    31f4:	000a0d73          	0xa0d73
    31f8:	6e45                	lui	t3,0x11
    31fa:	7274                	flw	fa3,100(a2)
    31fc:	2079                	jal	328a <_exit+0x16a>
    31fe:	6461                	lui	s0,0x18
    3200:	7264                	flw	fs1,100(a2)
    3202:	7365                	lui	t1,0xffff9
    3204:	6f6e2073          	csrs	0x6f6,t3
    3208:	2074                	lbu	a3,6(s0)
    320a:	6c61                	lui	s8,0x18
    320c:	6769                	lui	a4,0x1a
    320e:	656e                	flw	fa0,216(sp)
    3210:	0d64                	addi	s1,sp,668
    3212:	000a                	c.slli	zero,0x2
    3214:	5041                	c.li	zero,-16
    3216:	2050                	lbu	a2,4(s0)
    3218:	7261                	lui	tp,0xffff8
    321a:	6165                	addi	sp,sp,112
    321c:	6e20                	flw	fs0,88(a2)
    321e:	7020746f          	jal	s0,a920 <_data_lma+0x735c>
    3222:	6f72                	flw	ft10,28(sp)
    3224:	6d617267          	0x6d617267
    3228:	656d                	lui	a0,0x1b
    322a:	2064                	lbu	s1,6(s0)
    322c:	6d28                	flw	fa0,88(a0)
    322e:	7461                	lui	s0,0xffff8
    3230:	73656863          	bltu	a0,s6,3960 <_data_lma+0x39c>
    3234:	6520                	flw	fs0,72(a0)
    3236:	6172                	flw	ft2,28(sp)
    3238:	76206573          	csrrsi	a0,0x762,0
    323c:	6c61                	lui	s8,0x18
    323e:	6575                	lui	a0,0x1d
    3240:	3020                	lbu	s0,3(s0)
    3242:	2578                	lbu	a4,14(a0)
    3244:	3830                	lbu	a2,19(s0)
    3246:	2958                	lbu	a4,20(a0)
    3248:	0a0d                	addi	s4,s4,3
    324a:	0000                	unimp
    324c:	5041                	c.li	zero,-16
    324e:	2050                	lbu	a2,4(s0)
    3250:	6176                	flw	ft2,92(sp)
    3252:	696c                	flw	fa1,84(a0)
    3254:	2c64                	lbu	s1,30(s0)
    3256:	6a20                	flw	fs0,80(a2)
    3258:	6d75                	lui	s10,0x1d
    325a:	6970                	flw	fa2,84(a0)
    325c:	676e                	flw	fa4,216(sp)
    325e:	7420                	flw	fs0,104(s0)
    3260:	5041206f          	j	15764 <_data_lma+0x121a0>
    3264:	2e50                	lbu	a2,28(a2)
    3266:	2e2e                	lhu	a1,26(a2)
    3268:	0a0d                	addi	s4,s4,3
    326a:	0000                	unimp
    326c:	754a                	flw	fa0,176(sp)
    326e:	706d                	c.lui	zero,0xffffb
    3270:	6620                	flw	fs0,72(a2)
    3272:	6961                	lui	s2,0x18
    3274:	656c                	flw	fa1,76(a0)
    3276:	2c64                	lbu	s1,30(s0)
    3278:	7320                	flw	fs0,96(a4)
    327a:	6174                	flw	fa3,68(a0)
    327c:	6979                	lui	s2,0x1e
    327e:	676e                	flw	fa4,216(sp)
    3280:	6920                	flw	fs0,80(a0)
    3282:	206e                	lhu	a1,6(s0)
    3284:	6f62                	flw	ft10,24(sp)
    3286:	6f6c746f          	jal	s0,ca97c <_data_lma+0xc73b8>
    328a:	6461                	lui	s0,0x18
    328c:	7265                	lui	tp,0xffff9
    328e:	0a0d                	addi	s4,s4,3
    3290:	0000                	unimp
    3292:	0000                	unimp
    3294:	6c46                	flw	fs8,80(sp)
    3296:	6761                	lui	a4,0x18
    3298:	6520                	flw	fs0,72(a0)
    329a:	6172                	flw	ft2,28(sp)
    329c:	2c646573          	csrrsi	a0,0x2c6,8
    32a0:	7320                	flw	fs0,96(a4)
    32a2:	6174                	flw	fa3,68(a0)
    32a4:	6979                	lui	s2,0x1e
    32a6:	676e                	flw	fa4,216(sp)
    32a8:	6920                	flw	fs0,80(a0)
    32aa:	206e                	lhu	a1,6(s0)
    32ac:	6f62                	flw	ft10,24(sp)
    32ae:	6f6c746f          	jal	s0,ca9a4 <_data_lma+0xc73e0>
    32b2:	6461                	lui	s0,0x18
    32b4:	7265                	lui	tp,0xffff9
    32b6:	2e2e                	lhu	a1,26(a2)
    32b8:	0d2e                	slli	s10,s10,0xb
    32ba:	000a                	c.slli	zero,0x2
    32bc:	6c46                	flw	fs8,80(sp)
    32be:	6761                	lui	a4,0x18
    32c0:	303d                	jal	2aee <_realloc_r+0x3e>
    32c2:	2578                	lbu	a4,14(a0)
    32c4:	3830                	lbu	a2,19(s0)
    32c6:	2058                	lbu	a4,4(s0)
    32c8:	7528                	flw	fa0,104(a0)
    32ca:	6b6e                	flw	fs6,216(sp)
    32cc:	6f6e                	flw	ft10,216(sp)
    32ce:	2c296e77          	0x2c296e77
    32d2:	4120                	lw	s0,64(a0)
    32d4:	5050                	lw	a2,36(s0)
    32d6:	7620                	flw	fs0,104(a2)
    32d8:	6c61                	lui	s8,0x18
    32da:	6469                	lui	s0,0x1a
    32dc:	6220                	flw	fs0,64(a2)
    32de:	7475                	lui	s0,0xffffd
    32e0:	6e20                	flw	fs0,88(a2)
    32e2:	6a20746f          	jal	s0,a984 <_data_lma+0x73c0>
    32e6:	6d75                	lui	s10,0x1d
    32e8:	6970                	flw	fa2,84(a0)
    32ea:	676e                	flw	fa4,216(sp)
    32ec:	0a0d                	addi	s4,s4,3
    32ee:	0000                	unimp
    32f0:	5041                	c.li	zero,-16
    32f2:	2050                	lbu	a2,4(s0)
    32f4:	6e69                	lui	t3,0x1a
    32f6:	6176                	flw	ft2,92(sp)
    32f8:	696c                	flw	fa1,84(a0)
    32fa:	2c64                	lbu	s1,30(s0)
    32fc:	7320                	flw	fs0,96(a4)
    32fe:	6174                	flw	fa3,68(a0)
    3300:	6979                	lui	s2,0x1e
    3302:	676e                	flw	fa4,216(sp)
    3304:	6920                	flw	fs0,80(a0)
    3306:	206e                	lhu	a1,6(s0)
    3308:	6f62                	flw	ft10,24(sp)
    330a:	6f6c746f          	jal	s0,caa00 <_data_lma+0xc743c>
    330e:	6461                	lui	s0,0x18
    3310:	7265                	lui	tp,0xffff9
    3312:	0a0d                	addi	s4,s4,3
    3314:	0000                	unimp
    3316:	0000                	unimp
    3318:	6f42                	flw	ft10,16(sp)
    331a:	6f6c746f          	jal	s0,caa10 <_data_lma+0xc744c>
    331e:	6461                	lui	s0,0x18
    3320:	7265                	lui	tp,0xffff9
    3322:	7220                	flw	fs0,96(a2)
    3324:	6165                	addi	sp,sp,112
    3326:	7964                	flw	fs1,116(a0)
    3328:	202c                	lbu	a1,2(s0)
    332a:	74696177          	0x74696177
    332e:	6e69                	lui	t3,0x1a
    3330:	6f662067          	0x6f662067
    3334:	2072                	lhu	a2,6(s0)
    3336:	6164                	flw	fs1,68(a0)
    3338:	6174                	flw	fa3,68(a0)
    333a:	2e2e                	lhu	a1,26(a2)
    333c:	0d2e                	slli	s10,s10,0xb
    333e:	000a                	c.slli	zero,0x2
    3340:	7245                	lui	tp,0xffff1
    3342:	7361                	lui	t1,0xffff8
    3344:	6e69                	lui	t3,0x1a
    3346:	50412067          	0x50412067
    334a:	2050                	lbu	a2,4(s0)
    334c:	6572                	flw	fa0,28(sp)
    334e:	6e6f6967          	0x6e6f6967
    3352:	2e2e                	lhu	a1,26(a2)
    3354:	0d2e                	slli	s10,s10,0xb
    3356:	000a                	c.slli	zero,0x2
    3358:	7245                	lui	tp,0xffff1
    335a:	7361                	lui	t1,0xffff8
    335c:	2065                	jal	3404 <_exit+0x2e4>
    335e:	6166                	flw	ft2,88(sp)
    3360:	6c69                	lui	s8,0x1a
    3362:	6465                	lui	s0,0x19
    3364:	0d21                	addi	s10,s10,8
    3366:	000a                	c.slli	zero,0x2
    3368:	7245                	lui	tp,0xffff1
    336a:	7361                	lui	t1,0xffff8
    336c:	2065                	jal	3414 <_exit+0x2f4>
    336e:	6f64                	flw	fs1,92(a4)
    3370:	656e                	flw	fa0,216(sp)
    3372:	0a0d                	addi	s4,s4,3
    3374:	0000                	unimp
    3376:	0000                	unimp
    3378:	6c66                	flw	fs8,88(sp)
    337a:	7361                	lui	t1,0xffff8
    337c:	2068                	lbu	a0,6(s0)
    337e:	6172                	flw	ft2,28(sp)
    3380:	676e                	flw	fa4,216(sp)
    3382:	2065                	jal	342a <_exit+0x30a>
    3384:	7265766f          	jal	a2,5aaaa <_data_lma+0x574e6>
    3388:	6c66                	flw	fs8,88(sp)
    338a:	0a0d776f          	jal	a4,da42a <_data_lma+0xd6e66>
    338e:	0000                	unimp
    3390:	6f44                	flw	fs1,28(a4)
    3392:	6f6c6e77          	0x6f6c6e77
    3396:	6461                	lui	s0,0x18
    3398:	6320                	flw	fs0,64(a4)
    339a:	6c706d6f          	jal	s10,a260 <_data_lma+0x6c9c>
    339e:	7465                	lui	s0,0xffff9
    33a0:	2c65                	jal	3658 <_data_lma+0x94>
    33a2:	7420                	flw	fs0,104(s0)
    33a4:	6c61746f          	jal	s0,1aa6a <_data_lma+0x174a6>
    33a8:	2520                	lbu	s0,10(a0)
    33aa:	756c                	flw	fa1,108(a0)
    33ac:	6220                	flw	fs0,64(a2)
    33ae:	7479                	lui	s0,0xffffe
    33b0:	7365                	lui	t1,0xffff9
    33b2:	0a0d                	addi	s4,s4,3
    33b4:	0000                	unimp
    33b6:	0000                	unimp
    33b8:	7245                	lui	tp,0xffff1
    33ba:	7361                	lui	t1,0xffff8
    33bc:	2065                	jal	3464 <_exit+0x344>
    33be:	6c66                	flw	fs8,88(sp)
    33c0:	6761                	lui	a4,0x18
    33c2:	7220                	flw	fs0,96(a2)
    33c4:	6765                	lui	a4,0x19
    33c6:	6f69                	lui	t5,0x1a
    33c8:	206e                	lhu	a1,6(s0)
    33ca:	6166                	flw	ft2,88(sp)
    33cc:	6c69                	lui	s8,0x1a
    33ce:	6465                	lui	s0,0x19
    33d0:	0a0d                	addi	s4,s4,3
    33d2:	0000                	unimp
    33d4:	6c46                	flw	fs8,80(sp)
    33d6:	6761                	lui	a4,0x18
    33d8:	7320                	flw	fs0,96(a4)
    33da:	7465                	lui	s0,0xffff9
    33dc:	7420                	flw	fs0,104(s0)
    33de:	5041206f          	j	158e2 <_data_lma+0x1231e>
    33e2:	2050                	lbu	a2,4(s0)
    33e4:	7628                	flw	fa0,104(a2)
    33e6:	7265                	lui	tp,0xffff9
    33e8:	303d                	jal	2c16 <_svfiprintf_r+0x36>
    33ea:	2578                	lbu	a4,14(a0)
    33ec:	3830                	lbu	a2,19(s0)
    33ee:	2c58                	lbu	a4,28(s0)
    33f0:	6420                	flw	fs0,72(s0)
    33f2:	7461                	lui	s0,0xffff8
    33f4:	3d65                	jal	32ac <_exit+0x18c>
    33f6:	7830                	flw	fa2,112(s0)
    33f8:	3025                	jal	2c20 <_svfiprintf_r+0x40>
    33fa:	5838                	lw	a4,112(s0)
    33fc:	0d29                	addi	s10,s10,10
    33fe:	000a                	c.slli	zero,0x2
    3400:	6552                	flw	fa0,20(sp)
    3402:	74746573          	csrrsi	a0,0x747,8
    3406:	6e69                	lui	t3,0x1a
    3408:	79732067          	0x79732067
    340c:	6d657473          	csrrci	s0,0x6d6,10
    3410:	7420                	flw	fs0,104(s0)
    3412:	7572206f          	j	26368 <_data_lma+0x22da4>
    3416:	206e                	lhu	a1,6(s0)
    3418:	5041                	c.li	zero,-16
    341a:	2e50                	lbu	a2,28(a2)
    341c:	2e2e                	lhu	a1,26(a2)
    341e:	0a0d                	addi	s4,s4,3
    3420:	0000                	unimp
    3422:	0000                	unimp
    3424:	6146                	flw	ft2,80(sp)
    3426:	6c69                	lui	s8,0x1a
    3428:	6465                	lui	s0,0x19
    342a:	7420                	flw	fs0,104(s0)
    342c:	7277206f          	j	76352 <_data_lma+0x72d8e>
    3430:	7469                	lui	s0,0xffffa
    3432:	2065                	jal	34da <__func__.2878+0x4a>
    3434:	6c66                	flw	fs8,88(sp)
    3436:	6761                	lui	a4,0x18
    3438:	7220                	flw	fs0,96(a2)
    343a:	6765                	lui	a4,0x19
    343c:	6f69                	lui	t5,0x1a
    343e:	0d6e                	slli	s10,s10,0x1b
    3440:	000a                	c.slli	zero,0x2
    3442:	0000                	unimp
    3444:	6f62                	flw	ft10,24(sp)
    3446:	6f6c746f          	jal	s0,cab3c <_data_lma+0xc7578>
    344a:	6461                	lui	s0,0x18
    344c:	7265                	lui	tp,0xffff9
    344e:	6820                	flw	fs0,80(s0)
    3450:	6e61                	lui	t3,0x18
    3452:	6c64                	flw	fs1,92(s0)
    3454:	2065                	jal	34fc <__func__.2878+0x6c>
    3456:	6170                	flw	fa2,68(a0)
    3458:	6c79                	lui	s8,0x1e
    345a:	2064616f          	jal	sp,49660 <_data_lma+0x4609c>
    345e:	6166                	flw	ft2,88(sp)
    3460:	6c69                	lui	s8,0x1a
    3462:	6465                	lui	s0,0x19
    3464:	0a0d                	addi	s4,s4,3
	...

00003468 <__func__.2857>:
    3468:	7472 725f 6e69 6267 6675 6566 5f72 6e69     rt_ringbuffer_in
    3478:	7469 0000                                   it..

0000347c <__func__.2864>:
    347c:	7472 725f 6e69 6267 6675 6566 5f72 7570     rt_ringbuffer_pu
    348c:	0074 0000                                   t...

00003490 <__func__.2878>:
    3490:	7472 725f 6e69 6267 6675 6566 5f72 6567     rt_ringbuffer_ge
    34a0:	0074 0000 6272 2120 203d 554e 4c4c 0000     t...rb != NULL..
    34b0:	2e2e 432f 6d6f 6f70 656e 746e 2f73 6972     ../Components/ri
    34c0:	676e 7562 6666 7265 632e 0000 6973 657a     ngbuffer.c..size
    34d0:	3e20 3020 0000 0000 6272 2120 203d 5452      > 0....rb != RT
    34e0:	4e5f 4c55 004c 0000 202c 7566 636e 6974     _NULL..., functi
    34f0:	6e6f 203a 0000 0000 7361 6573 7472 6f69     on: ....assertio
    3500:	206e 2522 2273 6620 6961 656c 3a64 6620     n "%s" failed: f
    3510:	6c69 2065 2522 2273 202c 696c 656e 2520     ile "%s", line %
    3520:	2564 2573 0a73 0000 2d23 2b30 0020 0000     d%s%s...#-0+ ...
    3530:	6c68 004c 6665 4567 4746 0000 3130 3332     hlL.efgEFG..0123
    3540:	3534 3736 3938 4241 4443 4645 0000 0000     456789ABCDEF....
    3550:	3130 3332 3534 3736 3938 6261 6463 6665     0123456789abcdef
    3560:	0000 0000                                   ....

00003564 <__sf_fake_stderr>:
	...

00003584 <__sf_fake_stdin>:
	...

000035a4 <__sf_fake_stdout>:
	...
